(dp1
S'files'
p2
(dp3
S'_Users_caveman__virtualenvs_rssi_lib_python2_7_site-packages_django_core_management_commands_syncdb'
p4
(dp5
S'index'
p6
(dp7
S'html_filename'
p8
S'_Users_caveman__virtualenvs_rssi_lib_python2_7_site-packages_django_core_management_commands_syncdb.html'
p9
sS'name'
p10
S'/Users/caveman/.virtualenvs/rssi/lib/python2.7/site-packages/django/core/management/commands/syncdb'
p11
sS'nums'
p12
ccopy_reg
_reconstructor
p13
(ccoverage.results
Numbers
p14
c__builtin__
object
p15
NtRp16
(dp17
S'n_files'
p18
I1
sS'n_branches'
p19
I0
sS'n_statements'
p20
I99
sS'n_excluded'
p21
I0
sS'n_partial_branches'
p22
I0
sS'n_missing'
p23
I20
sS'n_missing_branches'
p24
I0
sbssS'hash'
p25
S'L\xd0\xd9\xf5\x1f.\x1e\x06\xfa]\xfd\t\x1eO/\x83'
p26
ssS'_Users_caveman__virtualenvs_rssi_lib_python2_7_site-packages_django_db_models_fields_subclassing'
p27
(dp28
g6
(dp29
g8
S'_Users_caveman__virtualenvs_rssi_lib_python2_7_site-packages_django_db_models_fields_subclassing.html'
p30
sg10
S'/Users/caveman/.virtualenvs/rssi/lib/python2.7/site-packages/django/db/models/fields/subclassing'
p31
sg12
g13
(g14
g15
NtRp32
(dp33
g18
I1
sg19
I0
sg20
I21
sg21
I0
sg22
I0
sg23
I14
sg24
I0
sbssg25
S' \xc8$\x1a\xca\xc6\xb9\n\xaew\xc3>\x8ej\x81b'
p34
ssS'_Users_caveman__virtualenvs_rssi_lib_python2_7_site-packages_django_utils_dateformat'
p35
(dp36
g6
(dp37
g8
S'_Users_caveman__virtualenvs_rssi_lib_python2_7_site-packages_django_utils_dateformat.html'
p38
sg10
S'/Users/caveman/.virtualenvs/rssi/lib/python2.7/site-packages/django/utils/dateformat'
p39
sg12
g13
(g14
g15
NtRp40
(dp41
g18
I1
sg19
I0
sg20
I181
sg21
I0
sg22
I0
sg23
I119
sg24
I0
sbssg25
S'\xb5E)F\x839\xcdaS\xdb\x02\x1e\x8a9\xcf\xb0'
p42
ssS'_Users_caveman__virtualenvs_rssi_lib_python2_7_site-packages_django_core_files___init__'
p43
(dp44
g6
(dp45
g8
S'_Users_caveman__virtualenvs_rssi_lib_python2_7_site-packages_django_core_files___init__.html'
p46
sg10
S'/Users/caveman/.virtualenvs/rssi/lib/python2.7/site-packages/django/core/files/__init__'
p47
sg12
g13
(g14
g15
NtRp48
(dp49
g18
I1
sg19
I0
sg20
I1
sg21
I0
sg22
I0
sg23
I0
sg24
I0
sbssg25
S"\xa1\xbfiA'\x85B\x1e\xd8\xe0\x91\xe3\xf7\x86\x81\xb2"
p50
ssS'_Users_caveman__virtualenvs_rssi_lib_python2_7_site-packages_django_core_files_utils'
p51
(dp52
g6
(dp53
g8
S'_Users_caveman__virtualenvs_rssi_lib_python2_7_site-packages_django_core_files_utils.html'
p54
sg10
S'/Users/caveman/.virtualenvs/rssi/lib/python2.7/site-packages/django/core/files/utils'
p55
sg12
g13
(g14
g15
NtRp56
(dp57
g18
I1
sg19
I0
sg20
I19
sg21
I0
sg22
I0
sg23
I1
sg24
I0
sbssg25
S'\x91@)\xe4(\x81\xd6\xb8\x9b\x16\xc4\xeeh\x11e\xff'
p58
ssS'_Users_caveman__virtualenvs_rssi_lib_python2_7_site-packages_django_test_testcases'
p59
(dp60
g6
(dp61
g8
S'_Users_caveman__virtualenvs_rssi_lib_python2_7_site-packages_django_test_testcases.html'
p62
sg10
S'/Users/caveman/.virtualenvs/rssi/lib/python2.7/site-packages/django/test/testcases'
p63
sg12
g13
(g14
g15
NtRp64
(dp65
g18
I1
sg19
I0
sg20
I609
sg21
I0
sg22
I0
sg23
I417
sg24
I0
sbssg25
S"\x17\xb2\xf3d\xed\xe6b\xdd\x9a\xf6'\xd9\xc6\x0e\x9b\xf3"
p66
ssS'_Users_caveman__virtualenvs_rssi_lib_python2_7_site-packages_django_contrib_sessions_management___init__'
p67
(dp68
g6
(dp69
g8
S'_Users_caveman__virtualenvs_rssi_lib_python2_7_site-packages_django_contrib_sessions_management___init__.html'
p70
sg10
S'/Users/caveman/.virtualenvs/rssi/lib/python2.7/site-packages/django/contrib/sessions/management/__init__'
p71
sg12
g13
(g14
g15
NtRp72
(dp73
g18
I1
sg19
I0
sg20
I0
sg21
I0
sg22
I0
sg23
I0
sg24
I0
sbssg25
S'\xb0\xc8pN\xaf>\xa0\xbaz\x144\xe0A9\xb8?'
p74
ssS'_Users_caveman__virtualenvs_rssi_lib_python2_7_site-packages_yaml_resolver'
p75
(dp76
g6
(dp77
g8
S'_Users_caveman__virtualenvs_rssi_lib_python2_7_site-packages_yaml_resolver.html'
p78
sg10
S'/Users/caveman/.virtualenvs/rssi/lib/python2.7/site-packages/yaml/resolver'
p79
sg12
g13
(g14
g15
NtRp80
(dp81
g18
I1
sg19
I0
sg20
I132
sg21
I0
sg22
I0
sg23
I96
sg24
I0
sbssg25
S'\xa0#l\xee\x05\xfa\xe5vt!*\xe87\xa2\x03x'
p82
ssS'_Users_caveman__virtualenvs_rssi_lib_python2_7_site-packages_django_db_transaction'
p83
(dp84
g6
(dp85
g8
S'_Users_caveman__virtualenvs_rssi_lib_python2_7_site-packages_django_db_transaction.html'
p86
sg10
S'/Users/caveman/.virtualenvs/rssi/lib/python2.7/site-packages/django/db/transaction'
p87
sg12
g13
(g14
g15
NtRp88
(dp89
g18
I1
sg19
I0
sg20
I135
sg21
I0
sg22
I0
sg23
I79
sg24
I0
sbssg25
S'\xdcf]\xe1\xfad\xe5n\x1c\xeb\x98j^\xd1!X'
p90
ssS'_Users_caveman__virtualenvs_rssi_lib_python2_7_site-packages_django_core_wsgi'
p91
(dp92
g6
(dp93
g8
S'_Users_caveman__virtualenvs_rssi_lib_python2_7_site-packages_django_core_wsgi.html'
p94
sg10
S'/Users/caveman/.virtualenvs/rssi/lib/python2.7/site-packages/django/core/wsgi'
p95
sg12
g13
(g14
g15
NtRp96
(dp97
g18
I1
sg19
I0
sg20
I3
sg21
I0
sg22
I0
sg23
I1
sg24
I0
sbssg25
S' \x0e\x1b\xd1D\xd0\x13<c\x84?v\xdf\xd1\xf8\x84'
p98
ssS'_Users_caveman__virtualenvs_rssi_lib_python2_7_site-packages_django_db_models_sql_where'
p99
(dp100
g6
(dp101
g8
S'_Users_caveman__virtualenvs_rssi_lib_python2_7_site-packages_django_db_models_sql_where.html'
p102
sg10
S'/Users/caveman/.virtualenvs/rssi/lib/python2.7/site-packages/django/db/models/sql/where'
p103
sg12
g13
(g14
g15
NtRp104
(dp105
g18
I1
sg19
I0
sg20
I201
sg21
I0
sg22
I0
sg23
I82
sg24
I0
sbssg25
S'\x80\xebjX5jQn-$\x17\xa9\xcf\xa3J\xa0'
p106
ssS'_Users_caveman__virtualenvs_rssi_lib_python2_7_site-packages_django_db_models_aggregates'
p107
(dp108
g6
(dp109
g8
S'_Users_caveman__virtualenvs_rssi_lib_python2_7_site-packages_django_db_models_aggregates.html'
p110
sg10
S'/Users/caveman/.virtualenvs/rssi/lib/python2.7/site-packages/django/db/models/aggregates'
p111
sg12
g13
(g14
g15
NtRp112
(dp113
g18
I1
sg19
I0
sg20
I25
sg21
I0
sg22
I0
sg23
I6
sg24
I0
sbssg25
S'TO\x1e/\xbc\x9c\x17\xc0\xd4\xad\xd9\xae\xc4\\\xa4I'
p114
ssS'restApp_tests'
p115
(dp116
g6
(dp117
S'html_filename'
p118
S'restApp_tests.html'
p119
sS'name'
p120
S'restApp/tests'
p121
sS'nums'
p122
g13
(g14
g15
NtRp123
(dp124
g18
I1
sg19
I0
sg20
I15
sg21
I0
sg22
I0
sg23
I0
sg24
I0
sbssg25
S'\x84$\x08\x9c\x00\x95\xba\xf6\xa0#\xfa\xcf\xe6\x16\xa7V'
p125
ssS'_Users_caveman__virtualenvs_rssi_lib_python2_7_site-packages_django_core_management_commands_test'
p126
(dp127
g6
(dp128
g8
S'_Users_caveman__virtualenvs_rssi_lib_python2_7_site-packages_django_core_management_commands_test.html'
p129
sg10
S'/Users/caveman/.virtualenvs/rssi/lib/python2.7/site-packages/django/core/management/commands/test'
p130
sg12
g13
(g14
g15
NtRp131
(dp132
g18
I1
sg19
I0
sg20
I46
sg21
I0
sg22
I0
sg23
I5
sg24
I0
sbssg25
S't\xd0X\x16\x83\x1f\x12\xe3Y\xb6\xf7!9{\x12/'
p133
ssS'_Users_caveman__virtualenvs_rssi_lib_python2_7_site-packages_django_views___init__'
p134
(dp135
g6
(dp136
g8
S'_Users_caveman__virtualenvs_rssi_lib_python2_7_site-packages_django_views___init__.html'
p137
sg10
S'/Users/caveman/.virtualenvs/rssi/lib/python2.7/site-packages/django/views/__init__'
p138
sg12
g13
(g14
g15
NtRp139
(dp140
g18
I1
sg19
I0
sg20
I0
sg21
I0
sg22
I0
sg23
I0
sg24
I0
sbssg25
S'\xb0\xc8pN\xaf>\xa0\xbaz\x144\xe0A9\xb8?'
p141
ssS'_Users_caveman__virtualenvs_rssi_lib_python2_7_site-packages_bson_dbref'
p142
(dp143
g6
(dp144
g8
S'_Users_caveman__virtualenvs_rssi_lib_python2_7_site-packages_bson_dbref.html'
p145
sg10
S'/Users/caveman/.virtualenvs/rssi/lib/python2.7/site-packages/bson/dbref'
p146
sg12
g13
(g14
g15
NtRp147
(dp148
g18
I1
sg19
I0
sg20
I50
sg21
I0
sg22
I0
sg23
I34
sg24
I0
sbssg25
S'\xa7c\xbdS\xa3\x9b\xdc\xceo+\x0c\xde\xdd9z\r'
p149
ssS'_Users_caveman__virtualenvs_rssi_lib_python2_7_site-packages_django_utils_cache'
p150
(dp151
g6
(dp152
g8
S'_Users_caveman__virtualenvs_rssi_lib_python2_7_site-packages_django_utils_cache.html'
p153
sg10
S'/Users/caveman/.virtualenvs/rssi/lib/python2.7/site-packages/django/utils/cache'
p154
sg12
g13
(g14
g15
NtRp155
(dp156
g18
I1
sg19
I0
sg20
I126
sg21
I0
sg22
I0
sg23
I102
sg24
I0
sbssg25
S'1E\x8e\xa3\xca$@.\x17\xff9\x1a\\\xbb\xa5r'
p157
ssS'_Users_caveman__virtualenvs_rssi_lib_python2_7_site-packages_django_utils_regex_helper'
p158
(dp159
g6
(dp160
g8
S'_Users_caveman__virtualenvs_rssi_lib_python2_7_site-packages_django_utils_regex_helper.html'
p161
sg10
S'/Users/caveman/.virtualenvs/rssi/lib/python2.7/site-packages/django/utils/regex_helper'
p162
sg12
g13
(g14
g15
NtRp163
(dp164
g18
I1
sg19
I0
sg20
I188
sg21
I0
sg22
I0
sg23
I175
sg24
I0
sbssg25
S'\xab\xc0\xa2\xe6\xd9PI*\xba_T\xc0qG\x0e\x97'
p165
ssS'_Users_caveman__virtualenvs_rssi_lib_python2_7_site-packages_bson_objectid'
p166
(dp167
g6
(dp168
g118
S'_Users_caveman__virtualenvs_rssi_lib_python2_7_site-packages_bson_objectid.html'
p169
sg120
S'/Users/caveman/.virtualenvs/rssi/lib/python2.7/site-packages/bson/objectid'
p170
sg122
g13
(g14
g15
NtRp171
(dp172
g18
I1
sg19
I0
sg20
I119
sg21
I0
sg22
I0
sg23
I54
sg24
I0
sbssg25
S"\xed'\x898\x1ae\xd6\xff\xc6\xee\xe9I\xdaC\xcf\xe9"
p173
ssS'_Users_caveman__virtualenvs_rssi_lib_python2_7_site-packages_django_contrib_sites___init__'
p174
(dp175
g6
(dp176
g8
S'_Users_caveman__virtualenvs_rssi_lib_python2_7_site-packages_django_contrib_sites___init__.html'
p177
sg10
S'/Users/caveman/.virtualenvs/rssi/lib/python2.7/site-packages/django/contrib/sites/__init__'
p178
sg12
g13
(g14
g15
NtRp179
(dp180
g18
I1
sg19
I0
sg20
I0
sg21
I0
sg22
I0
sg23
I0
sg24
I0
sbssg25
S'\xb0\xc8pN\xaf>\xa0\xbaz\x144\xe0A9\xb8?'
p181
ssS'_Users_caveman__virtualenvs_rssi_lib_python2_7_site-packages_django_contrib_sessions_models'
p182
(dp183
g6
(dp184
g8
S'_Users_caveman__virtualenvs_rssi_lib_python2_7_site-packages_django_contrib_sessions_models.html'
p185
sg10
S'/Users/caveman/.virtualenvs/rssi/lib/python2.7/site-packages/django/contrib/sessions/models'
p186
sg12
g13
(g14
g15
NtRp187
(dp188
g18
I1
sg19
I0
sg20
I23
sg21
I0
sg22
I0
sg23
I7
sg24
I0
sbssg25
S'x\xddm4\x9e\xd9\xf8\x08\xfb\xd4[C\xe7ER\xc5'
p189
ssS'_Users_caveman__virtualenvs_rssi_lib_python2_7_site-packages_django_contrib_staticfiles_finders'
p190
(dp191
g6
(dp192
g8
S'_Users_caveman__virtualenvs_rssi_lib_python2_7_site-packages_django_contrib_staticfiles_finders.html'
p193
sg10
S'/Users/caveman/.virtualenvs/rssi/lib/python2.7/site-packages/django/contrib/staticfiles/finders'
p194
sg12
g13
(g14
g15
NtRp195
(dp196
g18
I1
sg19
I0
sg20
I159
sg21
I0
sg22
I0
sg23
I121
sg24
I0
sbssg25
S'\xa3\xd7I\x8a\tm\x1dh\xb0c\xf4\xe3\xf7hmh'
p197
ssS'_Users_caveman__virtualenvs_rssi_lib_python2_7_site-packages_django_core_exceptions'
p198
(dp199
g6
(dp200
g8
S'_Users_caveman__virtualenvs_rssi_lib_python2_7_site-packages_django_core_exceptions.html'
p201
sg10
S'/Users/caveman/.virtualenvs/rssi/lib/python2.7/site-packages/django/core/exceptions'
p202
sg12
g13
(g14
g15
NtRp203
(dp204
g18
I1
sg19
I0
sg20
I49
sg21
I0
sg22
I0
sg23
I24
sg24
I0
sbssg25
S'VL\xfcg\xd3\x15\xd4$\x05\x8cM\x0f\x9b\x9eHV'
p205
ssS'_Users_caveman__virtualenvs_rssi_lib_python2_7_site-packages_django_db_models_signals'
p206
(dp207
g6
(dp208
g8
S'_Users_caveman__virtualenvs_rssi_lib_python2_7_site-packages_django_db_models_signals.html'
p209
sg10
S'/Users/caveman/.virtualenvs/rssi/lib/python2.7/site-packages/django/db/models/signals'
p210
sg12
g13
(g14
g15
NtRp211
(dp212
g18
I1
sg19
I0
sg20
I10
sg21
I0
sg22
I0
sg23
I0
sg24
I0
sbssg25
S'\x18B\xc9\xeaVX\xccj\xc2)\xbe\xfb\xee\xf2\x95\x95'
p213
ssS'_Users_caveman__virtualenvs_rssi_lib_python2_7_site-packages_yaml_error'
p214
(dp215
g6
(dp216
g8
S'_Users_caveman__virtualenvs_rssi_lib_python2_7_site-packages_yaml_error.html'
p217
sg10
S'/Users/caveman/.virtualenvs/rssi/lib/python2.7/site-packages/yaml/error'
p218
sg12
g13
(g14
g15
NtRp219
(dp220
g18
I1
sg19
I0
sg20
I58
sg21
I0
sg22
I0
sg23
I48
sg24
I0
sbssg25
S'B\x02\x01\nC5\xda\xd8f\xf8u^\xd2f\x8d\xce'
p221
ssS'_Users_caveman__virtualenvs_rssi_lib_python2_7_site-packages_django_db_utils'
p222
(dp223
g6
(dp224
g8
S'_Users_caveman__virtualenvs_rssi_lib_python2_7_site-packages_django_db_utils.html'
p225
sg10
S'/Users/caveman/.virtualenvs/rssi/lib/python2.7/site-packages/django/db/utils'
p226
sg12
g13
(g14
g15
NtRp227
(dp228
g18
I1
sg19
I0
sg20
I119
sg21
I0
sg22
I0
sg23
I54
sg24
I0
sbssg25
S'T+\x86(\x19k\xaf\xady\x82%\xe5(\xca\x90V'
p229
ssS'_Users_caveman__virtualenvs_rssi_lib_python2_7_site-packages_django_contrib_contenttypes___init__'
p230
(dp231
g6
(dp232
g8
S'_Users_caveman__virtualenvs_rssi_lib_python2_7_site-packages_django_contrib_contenttypes___init__.html'
p233
sg10
S'/Users/caveman/.virtualenvs/rssi/lib/python2.7/site-packages/django/contrib/contenttypes/__init__'
p234
sg12
g13
(g14
g15
NtRp235
(dp236
g18
I1
sg19
I0
sg20
I0
sg21
I0
sg22
I0
sg23
I0
sg24
I0
sbssg25
S'\xb0\xc8pN\xaf>\xa0\xbaz\x144\xe0A9\xb8?'
p237
ssS'_Users_caveman__virtualenvs_rssi_lib_python2_7_site-packages_django_middleware___init__'
p238
(dp239
g6
(dp240
g8
S'_Users_caveman__virtualenvs_rssi_lib_python2_7_site-packages_django_middleware___init__.html'
p241
sg10
S'/Users/caveman/.virtualenvs/rssi/lib/python2.7/site-packages/django/middleware/__init__'
p242
sg12
g13
(g14
g15
NtRp243
(dp244
g18
I1
sg19
I0
sg20
I0
sg21
I0
sg22
I0
sg23
I0
sg24
I0
sbssg25
S'\xb0\xc8pN\xaf>\xa0\xbaz\x144\xe0A9\xb8?'
p245
ssS'_Users_caveman__virtualenvs_rssi_lib_python2_7_site-packages_django_utils_version'
p246
(dp247
g6
(dp248
g8
S'_Users_caveman__virtualenvs_rssi_lib_python2_7_site-packages_django_utils_version.html'
p249
sg10
S'/Users/caveman/.virtualenvs/rssi/lib/python2.7/site-packages/django/utils/version'
p250
sg12
g13
(g14
g15
NtRp251
(dp252
g18
I1
sg19
I0
sg20
I29
sg21
I0
sg22
I0
sg23
I15
sg24
I0
sbssg25
S'\xba\xcb\xe5|\x18\xbcUd\xd6q\x19\xc9p-\xb6\xb2'
p253
ssS'_Users_caveman__virtualenvs_rssi_lib_python2_7_site-packages_django_db_models_sql_aggregates'
p254
(dp255
g6
(dp256
g8
S'_Users_caveman__virtualenvs_rssi_lib_python2_7_site-packages_django_db_models_sql_aggregates.html'
p257
sg10
S'/Users/caveman/.virtualenvs/rssi/lib/python2.7/site-packages/django/db/models/sql/aggregates'
p258
sg12
g13
(g14
g15
NtRp259
(dp260
g18
I1
sg19
I0
sg20
I57
sg21
I0
sg22
I0
sg23
I27
sg24
I0
sbssg25
S'"\xd6\xd4\x0f\xa9\xc7/\xabr\x93@\x0b\x90p\xca\xdf'
p261
ssS'_Users_caveman__virtualenvs_rssi_lib_python2_7_site-packages_django_forms_util'
p262
(dp263
g6
(dp264
g8
S'_Users_caveman__virtualenvs_rssi_lib_python2_7_site-packages_django_forms_util.html'
p265
sg10
S'/Users/caveman/.virtualenvs/rssi/lib/python2.7/site-packages/django/forms/util'
p266
sg12
g13
(g14
g15
NtRp267
(dp268
g18
I1
sg19
I0
sg20
I44
sg21
I0
sg22
I0
sg23
I22
sg24
I0
sbssg25
S'\xb0\xfei\xd9\x80[lQ\xc7\xf5\x88\xf8\x9eDf\xd2'
p269
ssS'_Users_caveman__virtualenvs_rssi_lib_python2_7_site-packages_django_utils_decorators'
p270
(dp271
g6
(dp272
g8
S'_Users_caveman__virtualenvs_rssi_lib_python2_7_site-packages_django_utils_decorators.html'
p273
sg10
S'/Users/caveman/.virtualenvs/rssi/lib/python2.7/site-packages/django/utils/decorators'
p274
sg12
g13
(g14
g15
NtRp275
(dp276
g18
I1
sg19
I0
sg20
I59
sg21
I0
sg22
I0
sg23
I51
sg24
I0
sbssg25
S'!\xb7\xb3\x02\xdf]\xcf(g\xb6[\xc0\xb0nIN'
p277
ssS'_Users_caveman__virtualenvs_rssi_lib_python2_7_site-packages_yaml_events'
p278
(dp279
g6
(dp280
g8
S'_Users_caveman__virtualenvs_rssi_lib_python2_7_site-packages_yaml_events.html'
p281
sg10
S'/Users/caveman/.virtualenvs/rssi/lib/python2.7/site-packages/yaml/events'
p282
sg12
g13
(g14
g15
NtRp283
(dp284
g18
I1
sg19
I0
sg20
I61
sg21
I0
sg22
I0
sg23
I32
sg24
I0
sbssg25
S"\x8b\\\x08\x0f[\xfc\x9d'\x86(\xca\xe4\x89l\xc0\x02"
p285
ssS'_Users_caveman__virtualenvs_rssi_lib_python2_7_site-packages_django_core_management_commands_loaddata'
p286
(dp287
g6
(dp288
g8
S'_Users_caveman__virtualenvs_rssi_lib_python2_7_site-packages_django_core_management_commands_loaddata.html'
p289
sg10
S'/Users/caveman/.virtualenvs/rssi/lib/python2.7/site-packages/django/core/management/commands/loaddata'
p290
sg12
g13
(g14
g15
NtRp291
(dp292
g18
I1
sg19
I0
sg20
I157
sg21
I0
sg22
I0
sg23
I66
sg24
I0
sbssg25
S'\x9b<\xe7\x00\x9bjY\x85\x1e\xbf\xae)\xee>K\x01'
p293
ssS'_Users_caveman__virtualenvs_rssi_lib_python2_7_site-packages_django_contrib_messages___init__'
p294
(dp295
g6
(dp296
g8
S'_Users_caveman__virtualenvs_rssi_lib_python2_7_site-packages_django_contrib_messages___init__.html'
p297
sg10
S'/Users/caveman/.virtualenvs/rssi/lib/python2.7/site-packages/django/contrib/messages/__init__'
p298
sg12
g13
(g14
g15
NtRp299
(dp300
g18
I1
sg19
I0
sg20
I3
sg21
I0
sg22
I0
sg23
I0
sg24
I0
sbssg25
S'\x01~\xb7\xc9ZD\xe5N\xc3\x01\xc2\x94u\x0b`\x9e'
p301
ssS'_Users_caveman__virtualenvs_rssi_lib_python2_7_site-packages_django_forms_forms'
p302
(dp303
g6
(dp304
g8
S'_Users_caveman__virtualenvs_rssi_lib_python2_7_site-packages_django_forms_forms.html'
p305
sg10
S'/Users/caveman/.virtualenvs/rssi/lib/python2.7/site-packages/django/forms/forms'
p306
sg12
g13
(g14
g15
NtRp307
(dp308
g18
I1
sg19
I0
sg20
I281
sg21
I0
sg22
I0
sg23
I195
sg24
I0
sbssg25
S'\xb8M\xbe\xfd\x1aX\x05\x0ev6&\xeb\x04\x83\x13&'
p309
ssS'_Users_caveman__virtualenvs_rssi_lib_python2_7_site-packages_django_core_serializers___init__'
p310
(dp311
g6
(dp312
g8
S'_Users_caveman__virtualenvs_rssi_lib_python2_7_site-packages_django_core_serializers___init__.html'
p313
sg10
S'/Users/caveman/.virtualenvs/rssi/lib/python2.7/site-packages/django/core/serializers/__init__'
p314
sg12
g13
(g14
g15
NtRp315
(dp316
g18
I1
sg19
I0
sg20
I59
sg21
I0
sg22
I0
sg23
I29
sg24
I0
sbssg25
S'MJ\xf1\xa7\xeb\xa3UT\xe6#\xbdA\x07r\xa2\\'
p317
ssS'_Users_caveman__virtualenvs_rssi_lib_python2_7_site-packages_pymongo_ssl_match_hostname'
p318
(dp319
g6
(dp320
g8
S'_Users_caveman__virtualenvs_rssi_lib_python2_7_site-packages_pymongo_ssl_match_hostname.html'
p321
sg10
S'/Users/caveman/.virtualenvs/rssi/lib/python2.7/site-packages/pymongo/ssl_match_hostname'
p322
sg12
g13
(g14
g15
NtRp323
(dp324
g18
I1
sg19
I0
sg20
I35
sg21
I0
sg22
I0
sg23
I30
sg24
I0
sbssg25
S'T\xa92\x17\xc4cv\x06\xbb\xcc\xd1d\xcc\xbe\x89\x87'
p325
ssS'_Users_caveman__virtualenvs_rssi_lib_python2_7_site-packages_django_forms_fields'
p326
(dp327
g6
(dp328
g8
S'_Users_caveman__virtualenvs_rssi_lib_python2_7_site-packages_django_forms_fields.html'
p329
sg10
S'/Users/caveman/.virtualenvs/rssi/lib/python2.7/site-packages/django/forms/fields'
p330
sg12
g13
(g14
g15
NtRp331
(dp332
g18
I1
sg19
I0
sg20
I588
sg21
I0
sg22
I0
sg23
I430
sg24
I0
sbssg25
S'* E\x8e\xc3H^S\x1d\xc9\x06/d\xf8}T'
p333
ssS'_Users_caveman__virtualenvs_rssi_lib_python2_7_site-packages_bson_json_util'
p334
(dp335
g6
(dp336
g8
S'_Users_caveman__virtualenvs_rssi_lib_python2_7_site-packages_bson_json_util.html'
p337
sg10
S'/Users/caveman/.virtualenvs/rssi/lib/python2.7/site-packages/bson/json_util'
p338
sg12
g13
(g14
g15
NtRp339
(dp340
g18
I1
sg19
I0
sg20
I111
sg21
I0
sg22
I0
sg23
I87
sg24
I0
sbssg25
S'\xd8\xa3\xd2\x8c&P/\xc1\xfc\xdar\xb5\x00\xb6\x9c\x1a'
p341
ssS'_Users_caveman__virtualenvs_rssi_lib_python2_7_site-packages_django_contrib_auth_management___init__'
p342
(dp343
g6
(dp344
g8
S'_Users_caveman__virtualenvs_rssi_lib_python2_7_site-packages_django_contrib_auth_management___init__.html'
p345
sg10
S'/Users/caveman/.virtualenvs/rssi/lib/python2.7/site-packages/django/contrib/auth/management/__init__'
p346
sg12
g13
(g14
g15
NtRp347
(dp348
g18
I1
sg19
I0
sg20
I101
sg21
I0
sg22
I0
sg23
I51
sg24
I0
sbssg25
S'ko\x86\x1b\xcf\x9e~\x05d\xde\xe2\x94\xc0\x9b\xb4\xae'
p349
ssS'_Users_caveman__virtualenvs_rssi_lib_python2_7_site-packages_django_http___init__'
p350
(dp351
g6
(dp352
g8
S'_Users_caveman__virtualenvs_rssi_lib_python2_7_site-packages_django_http___init__.html'
p353
sg10
S'/Users/caveman/.virtualenvs/rssi/lib/python2.7/site-packages/django/http/__init__'
p354
sg12
g13
(g14
g15
NtRp355
(dp356
g18
I1
sg19
I0
sg20
I4
sg21
I0
sg22
I0
sg23
I0
sg24
I0
sbssg25
S'9D\xc4$2\xe1*J\xb6\xd3\x1b\xbe-\x93\x1c%'
p357
ssS'_Users_caveman__virtualenvs_rssi_lib_python2_7_site-packages_pymongo_connection'
p358
(dp359
g6
(dp360
g8
S'_Users_caveman__virtualenvs_rssi_lib_python2_7_site-packages_pymongo_connection.html'
p361
sg10
S'/Users/caveman/.virtualenvs/rssi/lib/python2.7/site-packages/pymongo/connection'
p362
sg12
g13
(g14
g15
NtRp363
(dp364
g18
I1
sg19
I0
sg20
I18
sg21
I0
sg22
I0
sg23
I11
sg24
I0
sbssg25
S'\x7f\x9d\x95x\xd9\xdb\xb3\xfe\xb7F\xdc\xad\xbdT,{'
p365
ssS'_Users_caveman__virtualenvs_rssi_lib_python2_7_site-packages_django_core_serializers_python'
p366
(dp367
g6
(dp368
g8
S'_Users_caveman__virtualenvs_rssi_lib_python2_7_site-packages_django_core_serializers_python.html'
p369
sg10
S'/Users/caveman/.virtualenvs/rssi/lib/python2.7/site-packages/django/core/serializers/python'
p370
sg12
g13
(g14
g15
NtRp371
(dp372
g18
I1
sg19
I0
sg20
I86
sg21
I0
sg22
I0
sg23
I67
sg24
I0
sbssg25
S"\xcf\xb3s\n\xa1\x83\xbc\xc1\xe4W\xfe2'\xb9b\xce"
p373
ssS'_Users_caveman__virtualenvs_rssi_lib_python2_7_site-packages_mongoengine_queryset_manager'
p374
(dp375
g6
(dp376
g118
S'_Users_caveman__virtualenvs_rssi_lib_python2_7_site-packages_mongoengine_queryset_manager.html'
p377
sg120
S'/Users/caveman/.virtualenvs/rssi/lib/python2.7/site-packages/mongoengine/queryset/manager'
p378
sg122
g13
(g14
g15
NtRp379
(dp380
g18
I1
sg19
I0
sg20
I24
sg21
I0
sg22
I0
sg23
I9
sg24
I0
sbssg25
S'\x17\xff_V\xbe\xce\xa1\xb8j\x97\xa1s\x03\x05\xfd#'
p381
ssS'_Users_caveman__virtualenvs_rssi_lib_python2_7_site-packages_django_contrib_messages_constants'
p382
(dp383
g6
(dp384
g8
S'_Users_caveman__virtualenvs_rssi_lib_python2_7_site-packages_django_contrib_messages_constants.html'
p385
sg10
S'/Users/caveman/.virtualenvs/rssi/lib/python2.7/site-packages/django/contrib/messages/constants'
p386
sg12
g13
(g14
g15
NtRp387
(dp388
g18
I1
sg19
I0
sg20
I6
sg21
I0
sg22
I0
sg23
I0
sg24
I0
sbssg25
S'\xe2n\xbf/\x11\x9a\xf2\xc6\xa4\x8f~\xd2\x91y\xd4\xda'
p389
ssS'_Users_caveman__virtualenvs_rssi_lib_python2_7_site-packages_django_contrib_staticfiles___init__'
p390
(dp391
g6
(dp392
g8
S'_Users_caveman__virtualenvs_rssi_lib_python2_7_site-packages_django_contrib_staticfiles___init__.html'
p393
sg10
S'/Users/caveman/.virtualenvs/rssi/lib/python2.7/site-packages/django/contrib/staticfiles/__init__'
p394
sg12
g13
(g14
g15
NtRp395
(dp396
g18
I1
sg19
I0
sg20
I0
sg21
I0
sg22
I0
sg23
I0
sg24
I0
sbssg25
S'\xb0\xc8pN\xaf>\xa0\xbaz\x144\xe0A9\xb8?'
p397
ssS'_Users_caveman__virtualenvs_rssi_lib_python2_7_site-packages_mongoengine_queryset___init__'
p398
(dp399
g6
(dp400
g8
S'_Users_caveman__virtualenvs_rssi_lib_python2_7_site-packages_mongoengine_queryset___init__.html'
p401
sg10
S'/Users/caveman/.virtualenvs/rssi/lib/python2.7/site-packages/mongoengine/queryset/__init__'
p402
sg12
g13
(g14
g15
NtRp403
(dp404
g18
I1
sg19
I0
sg20
I7
sg21
I0
sg22
I0
sg23
I0
sg24
I0
sbssg25
S"\xb4\xc5\x8d:W\xac\x07%\xda'~\xe0v\x80L\xda"
p405
ssS'_Users_caveman__virtualenvs_rssi_lib_python2_7_site-packages_django_db_models_loading'
p406
(dp407
g6
(dp408
g8
S'_Users_caveman__virtualenvs_rssi_lib_python2_7_site-packages_django_db_models_loading.html'
p409
sg10
S'/Users/caveman/.virtualenvs/rssi/lib/python2.7/site-packages/django/db/models/loading'
p410
sg12
g13
(g14
g15
NtRp411
(dp412
g18
I1
sg19
I0
sg20
I121
sg21
I0
sg22
I0
sg23
I21
sg24
I0
sbssg25
S'\xa2\xc0_xE\x0b\xc4t;\xcf&\x83oRz\x94'
p413
ssS'_Users_caveman__virtualenvs_rssi_lib_python2_7_site-packages_pymongo___init__'
p414
(dp415
g6
(dp416
g8
S'_Users_caveman__virtualenvs_rssi_lib_python2_7_site-packages_pymongo___init__.html'
p417
sg10
S'/Users/caveman/.virtualenvs/rssi/lib/python2.7/site-packages/pymongo/__init__'
p418
sg12
g13
(g14
g15
NtRp419
(dp420
g18
I1
sg19
I0
sg20
I27
sg21
I0
sg22
I0
sg23
I6
sg24
I0
sbssg25
S'\x15:\xc0\xeeB\xd6)\xdeC\xbe\xce&_Ta\xef'
p421
ssS'_Users_caveman__virtualenvs_rssi_lib_python2_7_site-packages_django_utils_importlib'
p422
(dp423
g6
(dp424
g8
S'_Users_caveman__virtualenvs_rssi_lib_python2_7_site-packages_django_utils_importlib.html'
p425
sg10
S'/Users/caveman/.virtualenvs/rssi/lib/python2.7/site-packages/django/utils/importlib'
p426
sg12
g13
(g14
g15
NtRp427
(dp428
g18
I1
sg19
I0
sg20
I23
sg21
I0
sg22
I0
sg23
I6
sg24
I0
sbssg25
S'\x02p\xb8\xc7\x01M\x08\xaf\xc4K>\x95\xf3\xfa9\xc9'
p429
ssS'_Users_caveman__virtualenvs_rssi_lib_python2_7_site-packages_django_core_files_uploadedfile'
p430
(dp431
g6
(dp432
g8
S'_Users_caveman__virtualenvs_rssi_lib_python2_7_site-packages_django_core_files_uploadedfile.html'
p433
sg10
S'/Users/caveman/.virtualenvs/rssi/lib/python2.7/site-packages/django/core/files/uploadedfile'
p434
sg12
g13
(g14
g15
NtRp435
(dp436
g18
I1
sg19
I0
sg20
I60
sg21
I0
sg22
I0
sg23
I32
sg24
I0
sbssg25
S'\xf9\x14\xfc\xaeej\x98\x970T\xbd\x8e\x1a$\xedq'
p437
ssS'_Users_caveman__virtualenvs_rssi_lib_python2_7_site-packages_yaml_representer'
p438
(dp439
g6
(dp440
g8
S'_Users_caveman__virtualenvs_rssi_lib_python2_7_site-packages_yaml_representer.html'
p441
sg10
S'/Users/caveman/.virtualenvs/rssi/lib/python2.7/site-packages/yaml/representer'
p442
sg12
g13
(g14
g15
NtRp443
(dp444
g18
I1
sg19
I0
sg20
I308
sg21
I0
sg22
I0
sg23
I225
sg24
I0
sbssg25
S'v\xd4\xdfu\x11\x01\x0bC\xa8(\xf1+f\xdd!I'
p445
ssS'_Users_caveman__virtualenvs_rssi_lib_python2_7_site-packages_django_utils_datastructures'
p446
(dp447
g6
(dp448
g8
S'_Users_caveman__virtualenvs_rssi_lib_python2_7_site-packages_django_utils_datastructures.html'
p449
sg10
S'/Users/caveman/.virtualenvs/rssi/lib/python2.7/site-packages/django/utils/datastructures'
p450
sg12
g13
(g14
g15
NtRp451
(dp452
g18
I1
sg19
I0
sg20
I303
sg21
I0
sg22
I0
sg23
I162
sg24
I0
sbssg25
S'c\xdb\x147!\xf1\x1e&\x81A\xd7e\xd3$b='
p453
ssS'_Users_caveman__virtualenvs_rssi_lib_python2_7_site-packages_django_forms_models'
p454
(dp455
g6
(dp456
g8
S'_Users_caveman__virtualenvs_rssi_lib_python2_7_site-packages_django_forms_models.html'
p457
sg10
S'/Users/caveman/.virtualenvs/rssi/lib/python2.7/site-packages/django/forms/models'
p458
sg12
g13
(g14
g15
NtRp459
(dp460
g18
I1
sg19
I0
sg20
I588
sg21
I0
sg22
I0
sg23
I485
sg24
I0
sbssg25
S'1{\x8b\xe7\x9a[if\x01$\xf5\xed\xc2. \xc5'
p461
ssS'_Users_caveman__virtualenvs_rssi_lib_python2_7_site-packages_gridfs_errors'
p462
(dp463
g6
(dp464
g8
S'_Users_caveman__virtualenvs_rssi_lib_python2_7_site-packages_gridfs_errors.html'
p465
sg10
S'/Users/caveman/.virtualenvs/rssi/lib/python2.7/site-packages/gridfs/errors'
p466
sg12
g13
(g14
g15
NtRp467
(dp468
g18
I1
sg19
I0
sg20
I7
sg21
I0
sg22
I0
sg23
I0
sg24
I0
sbssg25
S'i\x0bfh\x1bt\x01\xa6\x91\xb2\x07\xf0\x87\xca<\x19'
p469
ssS'_Users_caveman__virtualenvs_rssi_lib_python2_7_site-packages_django_core_cache_backends_db'
p470
(dp471
g6
(dp472
g8
S'_Users_caveman__virtualenvs_rssi_lib_python2_7_site-packages_django_core_cache_backends_db.html'
p473
sg10
S'/Users/caveman/.virtualenvs/rssi/lib/python2.7/site-packages/django/core/cache/backends/db'
p474
sg12
g13
(g14
g15
NtRp475
(dp476
g18
I1
sg19
I0
sg20
I128
sg21
I0
sg22
I0
sg23
I103
sg24
I0
sbssg25
S'\x18Sqc@\x84\x05\x07\xfd"h\x9e\xf4\xb3\xbfp'
p477
ssS'_Users_caveman__virtualenvs_rssi_lib_python2_7_site-packages_pymongo_helpers'
p478
(dp479
g6
(dp480
g118
S'_Users_caveman__virtualenvs_rssi_lib_python2_7_site-packages_pymongo_helpers.html'
p481
sg120
S'/Users/caveman/.virtualenvs/rssi/lib/python2.7/site-packages/pymongo/helpers'
p482
sg122
g13
(g14
g15
NtRp483
(dp484
g18
I1
sg19
I0
sg20
I84
sg21
I0
sg22
I0
sg23
I47
sg24
I0
sbssg25
S'<I\xee\xa8\x89\x80#\xf1\xab\xaeF\xb4\xb3\xe1\x8d\xcf'
p485
ssS'_Users_caveman__virtualenvs_rssi_lib_python2_7_site-packages_django_contrib_auth_signals'
p486
(dp487
g6
(dp488
g8
S'_Users_caveman__virtualenvs_rssi_lib_python2_7_site-packages_django_contrib_auth_signals.html'
p489
sg10
S'/Users/caveman/.virtualenvs/rssi/lib/python2.7/site-packages/django/contrib/auth/signals'
p490
sg12
g13
(g14
g15
NtRp491
(dp492
g18
I1
sg19
I0
sg20
I4
sg21
I0
sg22
I0
sg23
I0
sg24
I0
sbssg25
S'juq\x85\xf8\xf6\x92\xd4\xc6;\xc1\x16\xc2\xaa\xe6\xec'
p493
ssS'_Users_caveman__virtualenvs_rssi_lib_python2_7_site-packages_django_utils_formats'
p494
(dp495
g6
(dp496
g8
S'_Users_caveman__virtualenvs_rssi_lib_python2_7_site-packages_django_utils_formats.html'
p497
sg10
S'/Users/caveman/.virtualenvs/rssi/lib/python2.7/site-packages/django/utils/formats'
p498
sg12
g13
(g14
g15
NtRp499
(dp500
g18
I1
sg19
I0
sg20
I115
sg21
I0
sg22
I0
sg23
I91
sg24
I0
sbssg25
S'\xed`\xd5\xb7\xf7\xe0\xde\xcc\x82\xbd{^8\x1b\xeb\xc9'
p501
ssS'_Users_caveman__virtualenvs_rssi_lib_python2_7_site-packages_mongoengine_connection'
p502
(dp503
g6
(dp504
g118
S'_Users_caveman__virtualenvs_rssi_lib_python2_7_site-packages_mongoengine_connection.html'
p505
sg120
S'/Users/caveman/.virtualenvs/rssi/lib/python2.7/site-packages/mongoengine/connection'
p506
sg122
g13
(g14
g15
NtRp507
(dp508
g18
I1
sg19
I0
sg20
I77
sg21
I0
sg22
I0
sg23
I31
sg24
I0
sbssg25
S'\xe4}G~\xb0E\xa4\xd7\x8c\x13\xdb\xf9\x93\xd7\x84]'
p509
ssS'_Users_caveman__virtualenvs_rssi_lib_python2_7_site-packages_mongoengine_base_document'
p510
(dp511
g6
(dp512
g118
S'_Users_caveman__virtualenvs_rssi_lib_python2_7_site-packages_mongoengine_base_document.html'
p513
sg120
S'/Users/caveman/.virtualenvs/rssi/lib/python2.7/site-packages/mongoengine/base/document'
p514
sg122
g13
(g14
g15
NtRp515
(dp516
g18
I1
sg19
I0
sg20
I543
sg21
I0
sg22
I0
sg23
I348
sg24
I0
sbssg25
S'\xdado\xcb\x93\xeb)7e\x9a\xfe\xc4\x14=\x99\x05'
p517
ssS'_Users_caveman__virtualenvs_rssi_lib_python2_7_site-packages_django_utils_baseconv'
p518
(dp519
g6
(dp520
g8
S'_Users_caveman__virtualenvs_rssi_lib_python2_7_site-packages_django_utils_baseconv.html'
p521
sg10
S'/Users/caveman/.virtualenvs/rssi/lib/python2.7/site-packages/django/utils/baseconv'
p522
sg12
g13
(g14
g15
NtRp523
(dp524
g18
I1
sg19
I0
sg20
I48
sg21
I0
sg22
I0
sg23
I25
sg24
I0
sbssg25
S'\xb2\x0b\x94|\xcd\x96\xf2\xa9r)h\x95\xb7\x97B\xe5'
p525
ssS'_Users_caveman__virtualenvs_rssi_lib_python2_7_site-packages_django_db_models_fields___init__'
p526
(dp527
g6
(dp528
g8
S'_Users_caveman__virtualenvs_rssi_lib_python2_7_site-packages_django_db_models_fields___init__.html'
p529
sg10
S'/Users/caveman/.virtualenvs/rssi/lib/python2.7/site-packages/django/db/models/fields/__init__'
p530
sg12
g13
(g14
g15
NtRp531
(dp532
g18
I1
sg19
I0
sg20
I794
sg21
I0
sg22
I0
sg23
I433
sg24
I0
sbssg25
S'cBO\x8b2v0\xa2\x12\xf3d\xfd\xdd\xad\xd8\x16'
p533
ssS'_Users_caveman__virtualenvs_rssi_lib_python2_7_site-packages_django_contrib_sites_models'
p534
(dp535
g6
(dp536
g8
S'_Users_caveman__virtualenvs_rssi_lib_python2_7_site-packages_django_contrib_sites_models.html'
p537
sg10
S'/Users/caveman/.virtualenvs/rssi/lib/python2.7/site-packages/django/contrib/sites/models'
p538
sg12
g13
(g14
g15
NtRp539
(dp540
g18
I1
sg19
I0
sg20
I58
sg21
I0
sg22
I0
sg23
I28
sg24
I0
sbssg25
S'\x15\x99o\x91D\xf0\xc9\x99\xa92\xa7\n\xbf\xc4)\xac'
p541
ssS'_Users_caveman__virtualenvs_rssi_lib_python2_7_site-packages_django_contrib_messages_storage___init__'
p542
(dp543
g6
(dp544
g8
S'_Users_caveman__virtualenvs_rssi_lib_python2_7_site-packages_django_contrib_messages_storage___init__.html'
p545
sg10
S'/Users/caveman/.virtualenvs/rssi/lib/python2.7/site-packages/django/contrib/messages/storage/__init__'
p546
sg12
g13
(g14
g15
NtRp547
(dp548
g18
I1
sg19
I0
sg20
I18
sg21
I0
sg22
I0
sg23
I13
sg24
I0
sbssg25
S'\x86?\xfd<[\xbe\xa2`A&l%:\xf2[\x82'
p549
ssS'_Users_caveman__virtualenvs_rssi_lib_python2_7_site-packages_django_db_models_sql_subqueries'
p550
(dp551
g6
(dp552
g8
S'_Users_caveman__virtualenvs_rssi_lib_python2_7_site-packages_django_db_models_sql_subqueries.html'
p553
sg10
S'/Users/caveman/.virtualenvs/rssi/lib/python2.7/site-packages/django/db/models/sql/subqueries'
p554
sg12
g13
(g14
g15
NtRp555
(dp556
g18
I1
sg19
I0
sg20
I136
sg21
I0
sg22
I0
sg23
I87
sg24
I0
sbssg25
S'_\x89=S\x89\x1do\xb387\x11<8\x83&\xba'
p557
ssS'_Users_caveman__virtualenvs_rssi_lib_python2_7_site-packages_mongoengine_queryset_visitor'
p558
(dp559
g6
(dp560
g118
S'_Users_caveman__virtualenvs_rssi_lib_python2_7_site-packages_mongoengine_queryset_visitor.html'
p561
sg120
S'/Users/caveman/.virtualenvs/rssi/lib/python2.7/site-packages/mongoengine/queryset/visitor'
p562
sg122
g13
(g14
g15
NtRp563
(dp564
g18
I1
sg19
I0
sg20
I82
sg21
I0
sg22
I0
sg23
I36
sg24
I0
sbssg25
S'\r\x86\xf3\xfa\x10!\xbf\x81b\xd81q\x17\x99\xfe\x9f'
p565
ssS'_Users_caveman__virtualenvs_rssi_lib_python2_7_site-packages_django_core_cache_backends_locmem'
p566
(dp567
g6
(dp568
g8
S'_Users_caveman__virtualenvs_rssi_lib_python2_7_site-packages_django_core_cache_backends_locmem.html'
p569
sg10
S'/Users/caveman/.virtualenvs/rssi/lib/python2.7/site-packages/django/core/cache/backends/locmem'
p570
sg12
g13
(g14
g15
NtRp571
(dp572
g18
I1
sg19
I0
sg20
I119
sg21
I0
sg22
I0
sg23
I93
sg24
I0
sbssg25
S'\x9e5s\xf8EUb\xe7\xea$L25\x1c\xbc\xfc'
p573
ssS'_Users_caveman__virtualenvs_rssi_lib_python2_7_site-packages_django_utils_numberformat'
p574
(dp575
g6
(dp576
g8
S'_Users_caveman__virtualenvs_rssi_lib_python2_7_site-packages_django_utils_numberformat.html'
p577
sg10
S'/Users/caveman/.virtualenvs/rssi/lib/python2.7/site-packages/django/utils/numberformat'
p578
sg12
g13
(g14
g15
NtRp579
(dp580
g18
I1
sg19
I0
sg20
I31
sg21
I0
sg22
I0
sg23
I27
sg24
I0
sbssg25
S'\xf0(3>w\xdbe\x8d\x05\x0e\x03\x13{\x0c\x8d/'
p581
ssS'_Users_caveman__virtualenvs_rssi_lib_python2_7_site-packages_django_contrib_staticfiles_handlers'
p582
(dp583
g6
(dp584
g8
S'_Users_caveman__virtualenvs_rssi_lib_python2_7_site-packages_django_contrib_staticfiles_handlers.html'
p585
sg10
S'/Users/caveman/.virtualenvs/rssi/lib/python2.7/site-packages/django/contrib/staticfiles/handlers'
p586
sg12
g13
(g14
g15
NtRp587
(dp588
g18
I1
sg19
I0
sg20
I45
sg21
I0
sg22
I0
sg23
I26
sg24
I0
sbssg25
S"\x91'\x19\xf0H\xe9n\xb6\xf4\xb7j\xe8\x82I_]"
p589
ssS'_Users_caveman__virtualenvs_rssi_lib_python2_7_site-packages_django_db_models_options'
p590
(dp591
g6
(dp592
g8
S'_Users_caveman__virtualenvs_rssi_lib_python2_7_site-packages_django_db_models_options.html'
p593
sg10
S'/Users/caveman/.virtualenvs/rssi/lib/python2.7/site-packages/django/db/models/options'
p594
sg12
g13
(g14
g15
NtRp595
(dp596
g18
I1
sg19
I0
sg20
I338
sg21
I0
sg22
I0
sg23
I86
sg24
I0
sbssg25
S'\xa4\xd2\xa9ZgB\x90\x93\xab\xd0l\x96V\xb5^1'
p597
ssS'_Users_caveman__virtualenvs_rssi_lib_python2_7_site-packages_django_core_mail___init__'
p598
(dp599
g6
(dp600
g8
S'_Users_caveman__virtualenvs_rssi_lib_python2_7_site-packages_django_core_mail___init__.html'
p601
sg10
S'/Users/caveman/.virtualenvs/rssi/lib/python2.7/site-packages/django/core/mail/__init__'
p602
sg12
g13
(g14
g15
NtRp603
(dp604
g18
I1
sg19
I0
sg20
I39
sg21
I0
sg22
I0
sg23
I28
sg24
I0
sbssg25
S'\x05\xc9\xdd\x1e\x0b\xde;\xdd\x8e\xfb\x99-\xc4\x84\xbd\xd8'
p605
ssS'_Users_caveman__virtualenvs_rssi_lib_python2_7_site-packages_django_template_defaultfilters'
p606
(dp607
g6
(dp608
g8
S'_Users_caveman__virtualenvs_rssi_lib_python2_7_site-packages_django_template_defaultfilters.html'
p609
sg10
S'/Users/caveman/.virtualenvs/rssi/lib/python2.7/site-packages/django/template/defaultfilters'
p610
sg12
g13
(g14
g15
NtRp611
(dp612
g18
I1
sg19
I0
sg20
I458
sg21
I0
sg22
I0
sg23
I325
sg24
I0
sbssg25
S'\xab\xd6\xa2\x95Sa\x85\xe4\x8adp\xd1\x1eu\xcaB'
p613
ssS'_Users_caveman__virtualenvs_rssi_lib_python2_7_site-packages_django_contrib_messages_models'
p614
(dp615
g6
(dp616
g8
S'_Users_caveman__virtualenvs_rssi_lib_python2_7_site-packages_django_contrib_messages_models.html'
p617
sg10
S'/Users/caveman/.virtualenvs/rssi/lib/python2.7/site-packages/django/contrib/messages/models'
p618
sg12
g13
(g14
g15
NtRp619
(dp620
g18
I1
sg19
I0
sg20
I0
sg21
I0
sg22
I0
sg23
I0
sg24
I0
sbssg25
S'}\xf8)\x98N\x1e\xef\xd8Ky\x9f\x03d\x14L\xac'
p621
ssS'_Users_caveman__virtualenvs_rssi_lib_python2_7_site-packages_django_core___init__'
p622
(dp623
g6
(dp624
g8
S'_Users_caveman__virtualenvs_rssi_lib_python2_7_site-packages_django_core___init__.html'
p625
sg10
S'/Users/caveman/.virtualenvs/rssi/lib/python2.7/site-packages/django/core/__init__'
p626
sg12
g13
(g14
g15
NtRp627
(dp628
g18
I1
sg19
I0
sg20
I0
sg21
I0
sg22
I0
sg23
I0
sg24
I0
sbssg25
S'\xb0\xc8pN\xaf>\xa0\xbaz\x144\xe0A9\xb8?'
p629
ssS'_Users_caveman__virtualenvs_rssi_lib_python2_7_site-packages_django_utils_text'
p630
(dp631
g6
(dp632
g8
S'_Users_caveman__virtualenvs_rssi_lib_python2_7_site-packages_django_utils_text.html'
p633
sg10
S'/Users/caveman/.virtualenvs/rssi/lib/python2.7/site-packages/django/utils/text'
p634
sg12
g13
(g14
g15
NtRp635
(dp636
g18
I1
sg19
I0
sg20
I239
sg21
I0
sg22
I0
sg23
I174
sg24
I0
sbssg25
S"\x83|w`\xdb\x0ch\xc3\x0c'=8\xca+\xads"
p637
ssS'_Users_caveman__virtualenvs_rssi_lib_python2_7_site-packages_django_core_files_storage'
p638
(dp639
g6
(dp640
g8
S'_Users_caveman__virtualenvs_rssi_lib_python2_7_site-packages_django_core_files_storage.html'
p641
sg10
S'/Users/caveman/.virtualenvs/rssi/lib/python2.7/site-packages/django/core/files/storage'
p642
sg12
g13
(g14
g15
NtRp643
(dp644
g18
I1
sg19
I0
sg20
I160
sg21
I0
sg22
I0
sg23
I111
sg24
I0
sbssg25
S'\xaf\xf3\x1f\xb1]\t{\x1b\x1eLf\xf4,\xfe\x06M'
p645
ssS'_Users_caveman__virtualenvs_rssi_lib_python2_7_site-packages_gridfs_grid_file'
p646
(dp647
g6
(dp648
g8
S'_Users_caveman__virtualenvs_rssi_lib_python2_7_site-packages_gridfs_grid_file.html'
p649
sg10
S'/Users/caveman/.virtualenvs/rssi/lib/python2.7/site-packages/gridfs/grid_file'
p650
sg12
g13
(g14
g15
NtRp651
(dp652
g18
I1
sg19
I0
sg20
I244
sg21
I0
sg22
I0
sg23
I167
sg24
I0
sbssg25
S':\xf6\x14\xbb2m\xfe\x87z\xf9\x16(tqW\x06'
p653
ssS'_Users_caveman__virtualenvs_rssi_lib_python2_7_site-packages_pymongo_son_manipulator'
p654
(dp655
g6
(dp656
g118
S'_Users_caveman__virtualenvs_rssi_lib_python2_7_site-packages_pymongo_son_manipulator.html'
p657
sg120
S'/Users/caveman/.virtualenvs/rssi/lib/python2.7/site-packages/pymongo/son_manipulator'
p658
sg122
g13
(g14
g15
NtRp659
(dp660
g18
I1
sg19
I0
sg20
I66
sg21
I0
sg22
I0
sg23
I42
sg24
I0
sbssg25
S'd&\xc8\x10\xc0\xda\xe9i\xb1\x13\x01\xf8E\x10x\xe6'
p661
ssS'_Users_caveman__virtualenvs_rssi_lib_python2_7_site-packages_pymongo_errors'
p662
(dp663
g6
(dp664
g8
S'_Users_caveman__virtualenvs_rssi_lib_python2_7_site-packages_pymongo_errors.html'
p665
sg10
S'/Users/caveman/.virtualenvs/rssi/lib/python2.7/site-packages/pymongo/errors'
p666
sg12
g13
(g14
g15
NtRp667
(dp668
g18
I1
sg19
I0
sg20
I26
sg21
I0
sg22
I0
sg23
I4
sg24
I0
sbssg25
S'\xa14\x18\n\xaf\xd0\t\\\xe6\xb9\xad&\xd6\xfev\x17'
p669
ssS'_Users_caveman__virtualenvs_rssi_lib_python2_7_site-packages_mongoengine_common'
p670
(dp671
g6
(dp672
g118
S'_Users_caveman__virtualenvs_rssi_lib_python2_7_site-packages_mongoengine_common.html'
p673
sg120
S'/Users/caveman/.virtualenvs/rssi/lib/python2.7/site-packages/mongoengine/common'
p674
sg122
g13
(g14
g15
NtRp675
(dp676
g18
I1
sg19
I0
sg20
I24
sg21
I0
sg22
I0
sg23
I7
sg24
I0
sbssg25
S'\xb2\xad\x1f\xd9M\xeb\x89\xc9\xe8\xa9\x07\x18\xac\xff:j'
p677
ssS'_Users_caveman__virtualenvs_rssi_lib_python2_7_site-packages_pymongo_mongo_client'
p678
(dp679
g6
(dp680
g118
S'_Users_caveman__virtualenvs_rssi_lib_python2_7_site-packages_pymongo_mongo_client.html'
p681
sg120
S'/Users/caveman/.virtualenvs/rssi/lib/python2.7/site-packages/pymongo/mongo_client'
p682
sg122
g13
(g14
g15
NtRp683
(dp684
g18
I1
sg19
I0
sg20
I497
sg21
I0
sg22
I0
sg23
I242
sg24
I0
sbssg25
S"Gwo\xf4\xb5\x9b\x17\xf5\xfa'48\xc2.\xe0\x1d"
p685
ssS'_Users_caveman__virtualenvs_rssi_lib_python2_7_site-packages_pymongo_mongo_replica_set_client'
p686
(dp687
g6
(dp688
g8
S'_Users_caveman__virtualenvs_rssi_lib_python2_7_site-packages_pymongo_mongo_replica_set_client.html'
p689
sg10
S'/Users/caveman/.virtualenvs/rssi/lib/python2.7/site-packages/pymongo/mongo_replica_set_client'
p690
sg12
g13
(g14
g15
NtRp691
(dp692
g18
I1
sg19
I0
sg20
I759
sg21
I0
sg22
I0
sg23
I629
sg24
I0
sbssg25
S'k\xe8\x0b"k\x9a/Q\xebx\x18~\x9c\x98\x8c/'
p693
ssS'_Users_caveman__virtualenvs_rssi_lib_python2_7_site-packages_pymongo_read_preferences'
p694
(dp695
g6
(dp696
g8
S'_Users_caveman__virtualenvs_rssi_lib_python2_7_site-packages_pymongo_read_preferences.html'
p697
sg10
S'/Users/caveman/.virtualenvs/rssi/lib/python2.7/site-packages/pymongo/read_preferences'
p698
sg12
g13
(g14
g15
NtRp699
(dp700
g18
I1
sg19
I0
sg20
I84
sg21
I0
sg22
I0
sg23
I62
sg24
I0
sbssg25
S'yF\x04\x02 o\xfb$\x8b\xe9\x86\x97IQ\x16L'
p701
ssS'_Users_caveman__virtualenvs_rssi_lib_python2_7_site-packages_gridfs___init__'
p702
(dp703
g6
(dp704
g8
S'_Users_caveman__virtualenvs_rssi_lib_python2_7_site-packages_gridfs___init__.html'
p705
sg10
S'/Users/caveman/.virtualenvs/rssi/lib/python2.7/site-packages/gridfs/__init__'
p706
sg12
g13
(g14
g15
NtRp707
(dp708
g18
I1
sg19
I0
sg20
I61
sg21
I0
sg22
I0
sg23
I44
sg24
I0
sbssg25
S'\xf2\xb4M\x8f\x04j\x95 Pw,\xc5\xf4\x19\xfa\x05'
p709
ssS'_Users_caveman__virtualenvs_rssi_lib_python2_7_site-packages_django_core_management_commands___init__'
p710
(dp711
g6
(dp712
g8
S'_Users_caveman__virtualenvs_rssi_lib_python2_7_site-packages_django_core_management_commands___init__.html'
p713
sg10
S'/Users/caveman/.virtualenvs/rssi/lib/python2.7/site-packages/django/core/management/commands/__init__'
p714
sg12
g13
(g14
g15
NtRp715
(dp716
g18
I1
sg19
I0
sg20
I0
sg21
I0
sg22
I0
sg23
I0
sg24
I0
sbssg25
S'\xb0\xc8pN\xaf>\xa0\xbaz\x144\xe0A9\xb8?'
p717
ssS'_Users_caveman__virtualenvs_rssi_lib_python2_7_site-packages_django_template_base'
p718
(dp719
g6
(dp720
g8
S'_Users_caveman__virtualenvs_rssi_lib_python2_7_site-packages_django_template_base.html'
p721
sg10
S'/Users/caveman/.virtualenvs/rssi/lib/python2.7/site-packages/django/template/base'
p722
sg12
g13
(g14
g15
NtRp723
(dp724
g18
I1
sg19
I0
sg20
I778
sg21
I0
sg22
I0
sg23
I575
sg24
I0
sbssg25
S'1\x94y=M\xf1^\x1e\xaf\x93\x11~\xf4\xd1\xf7('
p725
ssS'_Users_caveman__virtualenvs_rssi_lib_python2_7_site-packages_mongoengine_base___init__'
p726
(dp727
g6
(dp728
g8
S'_Users_caveman__virtualenvs_rssi_lib_python2_7_site-packages_mongoengine_base___init__.html'
p729
sg10
S'/Users/caveman/.virtualenvs/rssi/lib/python2.7/site-packages/mongoengine/base/__init__'
p730
sg12
g13
(g14
g15
NtRp731
(dp732
g18
I1
sg19
I0
sg20
I6
sg21
I0
sg22
I0
sg23
I0
sg24
I0
sbssg25
S'\xaf\xd2\x8e\xae\xe5\x80\xf3#*U8\xb7\x0fi.\x18'
p733
ssS'_Users_caveman__virtualenvs_rssi_lib_python2_7_site-packages_django_contrib_messages_api'
p734
(dp735
g6
(dp736
g8
S'_Users_caveman__virtualenvs_rssi_lib_python2_7_site-packages_django_contrib_messages_api.html'
p737
sg10
S'/Users/caveman/.virtualenvs/rssi/lib/python2.7/site-packages/django/contrib/messages/api'
p738
sg12
g13
(g14
g15
NtRp739
(dp740
g18
I1
sg19
I0
sg20
I34
sg21
I0
sg22
I0
sg23
I20
sg24
I0
sbssg25
S'i\xb5\x8fk2\x89\xf2JF0\xfa\xd1z\x05\xaf\xe5'
p741
ssS'_Users_caveman__virtualenvs_rssi_lib_python2_7_site-packages_django_utils_safestring'
p742
(dp743
g6
(dp744
g8
S'_Users_caveman__virtualenvs_rssi_lib_python2_7_site-packages_django_utils_safestring.html'
p745
sg10
S'/Users/caveman/.virtualenvs/rssi/lib/python2.7/site-packages/django/utils/safestring'
p746
sg12
g13
(g14
g15
NtRp747
(dp748
g18
I1
sg19
I0
sg20
I62
sg21
I0
sg22
I0
sg23
I36
sg24
I0
sbssg25
S'\xc11%\xcf I\x05\xb2\xed{\xe4\xe37\x97\x02\xf6'
p749
ssS'_Users_caveman__virtualenvs_rssi_lib_python2_7_site-packages_django_utils_six'
p750
(dp751
g6
(dp752
g8
S'_Users_caveman__virtualenvs_rssi_lib_python2_7_site-packages_django_utils_six.html'
p753
sg10
S'/Users/caveman/.virtualenvs/rssi/lib/python2.7/site-packages/django/utils/six'
p754
sg12
g13
(g14
g15
NtRp755
(dp756
g18
I1
sg19
I0
sg20
I237
sg21
I0
sg22
I0
sg23
I115
sg24
I0
sbssg25
S'\x1f;\xd7\xe3R\xdd\xe4\xd6j\x00\x8as\x86\xbf\x1fW'
p757
ssS'_Users_caveman__virtualenvs_rssi_lib_python2_7_site-packages_django_db_backends_sqlite3___init__'
p758
(dp759
g6
(dp760
g8
S'_Users_caveman__virtualenvs_rssi_lib_python2_7_site-packages_django_db_backends_sqlite3___init__.html'
p761
sg10
S'/Users/caveman/.virtualenvs/rssi/lib/python2.7/site-packages/django/db/backends/sqlite3/__init__'
p762
sg12
g13
(g14
g15
NtRp763
(dp764
g18
I1
sg19
I0
sg20
I0
sg21
I0
sg22
I0
sg23
I0
sg24
I0
sbssg25
S'\xb0\xc8pN\xaf>\xa0\xbaz\x144\xe0A9\xb8?'
p765
ssS'_Users_caveman__virtualenvs_rssi_lib_python2_7_site-packages_django_utils_itercompat'
p766
(dp767
g6
(dp768
g8
S'_Users_caveman__virtualenvs_rssi_lib_python2_7_site-packages_django_utils_itercompat.html'
p769
sg10
S'/Users/caveman/.virtualenvs/rssi/lib/python2.7/site-packages/django/utils/itercompat'
p770
sg12
g13
(g14
g15
NtRp771
(dp772
g18
I1
sg19
I0
sg20
I23
sg21
I0
sg22
I0
sg23
I12
sg24
I0
sbssg25
S'\x89\xda\x9c\xeax\xbe\xf7V]S\x1e\xf2\x17\x8f\xce\x88'
p773
ssS'_Users_caveman__virtualenvs_rssi_lib_python2_7_site-packages_django_db_backends___init__'
p774
(dp775
g6
(dp776
g8
S'_Users_caveman__virtualenvs_rssi_lib_python2_7_site-packages_django_db_backends___init__.html'
p777
sg10
S'/Users/caveman/.virtualenvs/rssi/lib/python2.7/site-packages/django/db/backends/__init__'
p778
sg12
g13
(g14
g15
NtRp779
(dp780
g18
I1
sg19
I0
sg20
I451
sg21
I0
sg22
I0
sg23
I140
sg24
I0
sbssg25
S'*\xfc\xe3\xc4\x83\xe9\xe2\x00P/\xd8\xb9\xe4\x97\xd9\x93'
p781
ssS'_Users_caveman__virtualenvs_rssi_lib_python2_7_site-packages_bson_errors'
p782
(dp783
g6
(dp784
g8
S'_Users_caveman__virtualenvs_rssi_lib_python2_7_site-packages_bson_errors.html'
p785
sg10
S'/Users/caveman/.virtualenvs/rssi/lib/python2.7/site-packages/bson/errors'
p786
sg12
g13
(g14
g15
NtRp787
(dp788
g18
I1
sg19
I0
sg20
I6
sg21
I0
sg22
I0
sg23
I0
sg24
I0
sbssg25
S'\xfe\xbf\xde\xa9\x01GU\x00\xb3\xd7\xfft.\xcc?\xd6'
p789
ssS'_Users_caveman__virtualenvs_rssi_lib_python2_7_site-packages_django_utils_log'
p790
(dp791
g6
(dp792
g8
S'_Users_caveman__virtualenvs_rssi_lib_python2_7_site-packages_django_utils_log.html'
p793
sg10
S'/Users/caveman/.virtualenvs/rssi/lib/python2.7/site-packages/django/utils/log'
p794
sg12
g13
(g14
g15
NtRp795
(dp796
g18
I1
sg19
I0
sg20
I57
sg21
I0
sg22
I0
sg23
I33
sg24
I0
sbssg25
S'KL1\xa7\xf6\xb5\x02\t\xb4{\xd8\xd8`\xdd\x9fa'
p797
ssS'_Users_caveman__virtualenvs_rssi_lib_python2_7_site-packages_django_db_backends_sqlite3_introspection'
p798
(dp799
g6
(dp800
g8
S'_Users_caveman__virtualenvs_rssi_lib_python2_7_site-packages_django_db_backends_sqlite3_introspection.html'
p801
sg10
S'/Users/caveman/.virtualenvs/rssi/lib/python2.7/site-packages/django/db/backends/sqlite3/introspection'
p802
sg12
g13
(g14
g15
NtRp803
(dp804
g18
I1
sg19
I0
sg20
I92
sg21
I0
sg22
I0
sg23
I74
sg24
I0
sbssg25
S'\xfaEb\xe4\x04\x91\x13\x9e\x94\xcd\x99\xef\xd7\xdc\xbdr'
p805
ssS'_Users_caveman__virtualenvs_rssi_lib_python2_7_site-packages_django_test___init__'
p806
(dp807
g6
(dp808
g8
S'_Users_caveman__virtualenvs_rssi_lib_python2_7_site-packages_django_test___init__.html'
p809
sg10
S'/Users/caveman/.virtualenvs/rssi/lib/python2.7/site-packages/django/test/__init__'
p810
sg12
g13
(g14
g15
NtRp811
(dp812
g18
I1
sg19
I0
sg20
I3
sg21
I0
sg22
I0
sg23
I0
sg24
I0
sbssg25
S"k\xb8'p2\xfc8\xaf8\xa4\xad\xa4\xe9\x8c\x1c\xc3"
p813
ssS'_Users_caveman__virtualenvs_rssi_lib_python2_7_site-packages_django_db_models_fields_proxy'
p814
(dp815
g6
(dp816
g8
S'_Users_caveman__virtualenvs_rssi_lib_python2_7_site-packages_django_db_models_fields_proxy.html'
p817
sg10
S'/Users/caveman/.virtualenvs/rssi/lib/python2.7/site-packages/django/db/models/fields/proxy'
p818
sg12
g13
(g14
g15
NtRp819
(dp820
g18
I1
sg19
I0
sg20
I6
sg21
I0
sg22
I0
sg23
I3
sg24
I0
sbssg25
S'\xaf:\xd7\xa5\xadun\x1b\xb7\x141\x81\x80j\x94\xe6'
p821
ssS'_Users_caveman__virtualenvs_rssi_lib_python2_7_site-packages_django_template_loader'
p822
(dp823
g6
(dp824
g8
S'_Users_caveman__virtualenvs_rssi_lib_python2_7_site-packages_django_template_loader.html'
p825
sg10
S'/Users/caveman/.virtualenvs/rssi/lib/python2.7/site-packages/django/template/loader'
p826
sg12
g13
(g14
g15
NtRp827
(dp828
g18
I1
sg19
I0
sg20
I105
sg21
I0
sg22
I0
sg23
I81
sg24
I0
sbssg25
S'\xce\x9djJ\xd4\xcc#\xf4\xdf\xcf\xc7n{&\x13B'
p829
ssS'_Users_caveman__virtualenvs_rssi_lib_python2_7_site-packages_django_utils_unittest_util'
p830
(dp831
g6
(dp832
g8
S'_Users_caveman__virtualenvs_rssi_lib_python2_7_site-packages_django_utils_unittest_util.html'
p833
sg10
S'/Users/caveman/.virtualenvs/rssi/lib/python2.7/site-packages/django/utils/unittest/util'
p834
sg12
g13
(g14
g15
NtRp835
(dp836
g18
I1
sg19
I0
sg20
I74
sg21
I0
sg22
I0
sg23
I67
sg24
I0
sbssg25
S'\xb2x_,\x84YY\x16\x91\xcb5(\xe8\x1c<\t'
p837
ssS'_Users_caveman__virtualenvs_rssi_lib_python2_7_site-packages_django_db_models_query_utils'
p838
(dp839
g6
(dp840
g8
S'_Users_caveman__virtualenvs_rssi_lib_python2_7_site-packages_django_db_models_query_utils.html'
p841
sg10
S'/Users/caveman/.virtualenvs/rssi/lib/python2.7/site-packages/django/db/models/query_utils'
p842
sg12
g13
(g14
g15
NtRp843
(dp844
g18
I1
sg19
I0
sg20
I92
sg21
I0
sg22
I0
sg23
I65
sg24
I0
sbssg25
S'o\xa7\xc3\x81\x989\n\xc7m\xee~\xcas\x08Ak'
p845
ssS'_Users_caveman__virtualenvs_rssi_lib_python2_7_site-packages_bson_binary'
p846
(dp847
g6
(dp848
g8
S'_Users_caveman__virtualenvs_rssi_lib_python2_7_site-packages_bson_binary.html'
p849
sg10
S'/Users/caveman/.virtualenvs/rssi/lib/python2.7/site-packages/bson/binary'
p850
sg12
g13
(g14
g15
NtRp851
(dp852
g18
I1
sg19
I0
sg20
I54
sg21
I0
sg22
I0
sg23
I29
sg24
I0
sbssg25
S'=Ym\xd6\x1b\x87B\x1e\x9e\xbb\x11-A\x0f\x0f\x8e'
p853
ssS'_Users_caveman__virtualenvs_rssi_lib_python2_7_site-packages_django_db_models_fields_files'
p854
(dp855
g6
(dp856
g8
S'_Users_caveman__virtualenvs_rssi_lib_python2_7_site-packages_django_db_models_fields_files.html'
p857
sg10
S'/Users/caveman/.virtualenvs/rssi/lib/python2.7/site-packages/django/db/models/fields/files'
p858
sg12
g13
(g14
g15
NtRp859
(dp860
g18
I1
sg19
I0
sg20
I204
sg21
I0
sg22
I0
sg23
I136
sg24
I0
sbssg25
S'\xcf\x942!\xc9\xb4\xaa\x17\x05DT\x9eS\x89\x0fg'
p861
ssS'_Users_caveman__virtualenvs_rssi_lib_python2_7_site-packages_django_http_multipartparser'
p862
(dp863
g6
(dp864
g8
S'_Users_caveman__virtualenvs_rssi_lib_python2_7_site-packages_django_http_multipartparser.html'
p865
sg10
S'/Users/caveman/.virtualenvs/rssi/lib/python2.7/site-packages/django/http/multipartparser'
p866
sg12
g13
(g14
g15
NtRp867
(dp868
g18
I1
sg19
I0
sg20
I348
sg21
I0
sg22
I0
sg23
I296
sg24
I0
sbssg25
S'\x90\xcc\xa5\x82\xa3\xfcp[\r\xadc%\xf6\x0e.\xb3'
p869
ssS'_Users_caveman__virtualenvs_rssi_lib_python2_7_site-packages_django_contrib_staticfiles_views'
p870
(dp871
g6
(dp872
g8
S'_Users_caveman__virtualenvs_rssi_lib_python2_7_site-packages_django_contrib_staticfiles_views.html'
p873
sg10
S'/Users/caveman/.virtualenvs/rssi/lib/python2.7/site-packages/django/contrib/staticfiles/views'
p874
sg12
g13
(g14
g15
NtRp875
(dp876
g18
I1
sg19
I0
sg20
I22
sg21
I0
sg22
I0
sg23
I10
sg24
I0
sbssg25
S'\xdf\x8em,\x98CRFQ\x89$\xf4\x0e\xb5A\x1b'
p877
ssS'_Users_caveman__virtualenvs_rssi_lib_python2_7_site-packages_django_contrib_staticfiles_storage'
p878
(dp879
g6
(dp880
g8
S'_Users_caveman__virtualenvs_rssi_lib_python2_7_site-packages_django_contrib_staticfiles_storage.html'
p881
sg10
S'/Users/caveman/.virtualenvs/rssi/lib/python2.7/site-packages/django/contrib/staticfiles/storage'
p882
sg12
g13
(g14
g15
NtRp883
(dp884
g18
I1
sg19
I0
sg20
I181
sg21
I0
sg22
I0
sg23
I138
sg24
I0
sbssg25
S'\x82\x1b\x1e\xcb\n\xd3\xd9\x94\tb\x06})\xa3o\xa3'
p885
ssS'_Users_caveman__virtualenvs_rssi_lib_python2_7_site-packages_django_utils_module_loading'
p886
(dp887
g6
(dp888
g8
S'_Users_caveman__virtualenvs_rssi_lib_python2_7_site-packages_django_utils_module_loading.html'
p889
sg10
S'/Users/caveman/.virtualenvs/rssi/lib/python2.7/site-packages/django/utils/module_loading'
p890
sg12
g13
(g14
g15
NtRp891
(dp892
g18
I1
sg19
I0
sg20
I66
sg21
I0
sg22
I0
sg23
I58
sg24
I0
sbssg25
S'-5\xe0\xda\xf2h9\xe6\xd9\x89hR\x12\xa5\xddm'
p893
ssS'_Users_caveman__virtualenvs_rssi_lib_python2_7_site-packages_yaml_nodes'
p894
(dp895
g6
(dp896
g8
S'_Users_caveman__virtualenvs_rssi_lib_python2_7_site-packages_yaml_nodes.html'
p897
sg10
S'/Users/caveman/.virtualenvs/rssi/lib/python2.7/site-packages/yaml/nodes'
p898
sg12
g13
(g14
g15
NtRp899
(dp900
g18
I1
sg19
I0
sg20
I29
sg21
I0
sg22
I0
sg23
I17
sg24
I0
sbssg25
S"\xef\xba\x8c\xc1}\xa9J\xfc'\xb8(\x1f\x80\xeae\xa1"
p901
ssS'_Users_caveman__virtualenvs_rssi_lib_python2_7_site-packages_pymongo_auth'
p902
(dp903
g6
(dp904
g8
S'_Users_caveman__virtualenvs_rssi_lib_python2_7_site-packages_pymongo_auth.html'
p905
sg10
S'/Users/caveman/.virtualenvs/rssi/lib/python2.7/site-packages/pymongo/auth'
p906
sg12
g13
(g14
g15
NtRp907
(dp908
g18
I1
sg19
I0
sg20
I96
sg21
I0
sg22
I0
sg23
I74
sg24
I0
sbssg25
S'\x9ed\xda\xfd}\xf8a9\xc4\xbb\xe1tM\x9d\x9ax'
p909
ssS'_Users_caveman__virtualenvs_rssi_lib_python2_7_site-packages_mongoengine___init__'
p910
(dp911
g6
(dp912
g8
S'_Users_caveman__virtualenvs_rssi_lib_python2_7_site-packages_mongoengine___init__.html'
p913
sg10
S'/Users/caveman/.virtualenvs/rssi/lib/python2.7/site-packages/mongoengine/__init__'
p914
sg12
g13
(g14
g15
NtRp915
(dp916
g18
I1
sg19
I0
sg20
I20
sg21
I0
sg22
I0
sg23
I1
sg24
I0
sbssg25
S'\x89V\x90\r\xa4\x1a\xbe\xf1\xea\x91<\x99\xff\xffw\xa3'
p917
ssS'_Users_caveman__virtualenvs_rssi_lib_python2_7_site-packages_django_contrib_sessions___init__'
p918
(dp919
g6
(dp920
g8
S'_Users_caveman__virtualenvs_rssi_lib_python2_7_site-packages_django_contrib_sessions___init__.html'
p921
sg10
S'/Users/caveman/.virtualenvs/rssi/lib/python2.7/site-packages/django/contrib/sessions/__init__'
p922
sg12
g13
(g14
g15
NtRp923
(dp924
g18
I1
sg19
I0
sg20
I0
sg21
I0
sg22
I0
sg23
I0
sg24
I0
sbssg25
S'\xb0\xc8pN\xaf>\xa0\xbaz\x144\xe0A9\xb8?'
p925
ssS'_Users_caveman__virtualenvs_rssi_lib_python2_7_site-packages_mongoengine_signals'
p926
(dp927
g6
(dp928
g8
S'_Users_caveman__virtualenvs_rssi_lib_python2_7_site-packages_mongoengine_signals.html'
p929
sg10
S'/Users/caveman/.virtualenvs/rssi/lib/python2.7/site-packages/mongoengine/signals'
p930
sg12
g13
(g14
g15
NtRp931
(dp932
g18
I1
sg19
I0
sg20
I27
sg21
I0
sg22
I0
sg23
I2
sg24
I0
sbssg25
S'#0p=\xea\x96E\xc1]\xd9\x93\xc5\x82T\xc7n'
p933
ssS'_Users_caveman__virtualenvs_rssi_lib_python2_7_site-packages_django_core_serializers_json'
p934
(dp935
g6
(dp936
g8
S'_Users_caveman__virtualenvs_rssi_lib_python2_7_site-packages_django_core_serializers_json.html'
p937
sg10
S'/Users/caveman/.virtualenvs/rssi/lib/python2.7/site-packages/django/core/serializers/json'
p938
sg12
g13
(g14
g15
NtRp939
(dp940
g18
I1
sg19
I0
sg20
I72
sg21
I0
sg22
I0
sg23
I53
sg24
I0
sbssg25
S'\xad)W\xfe\x175\xcb\x97\x8c\xca\x7fW\xde.3\x9d'
p941
ssS'_Users_caveman__virtualenvs_rssi_lib_python2_7_site-packages_django_core_files_images'
p942
(dp943
g6
(dp944
g8
S'_Users_caveman__virtualenvs_rssi_lib_python2_7_site-packages_django_core_files_images.html'
p945
sg10
S'/Users/caveman/.virtualenvs/rssi/lib/python2.7/site-packages/django/core/files/images'
p946
sg12
g13
(g14
g15
NtRp947
(dp948
g18
I1
sg19
I0
sg20
I40
sg21
I0
sg22
I0
sg23
I32
sg24
I0
sbssg25
S'\xcf\x19\xca\xed\xd0\x9f\xdd\x00\xc0\xb9\xceq\xff\xa6JJ'
p949
ssS'_Users_caveman__virtualenvs_rssi_lib_python2_7_site-packages_django_contrib_staticfiles_models'
p950
(dp951
g6
(dp952
g8
S'_Users_caveman__virtualenvs_rssi_lib_python2_7_site-packages_django_contrib_staticfiles_models.html'
p953
sg10
S'/Users/caveman/.virtualenvs/rssi/lib/python2.7/site-packages/django/contrib/staticfiles/models'
p954
sg12
g13
(g14
g15
NtRp955
(dp956
g18
I1
sg19
I0
sg20
I0
sg21
I0
sg22
I0
sg23
I0
sg24
I0
sbssg25
S'\xb0\xc8pN\xaf>\xa0\xbaz\x144\xe0A9\xb8?'
p957
ssS'_Users_caveman__virtualenvs_rssi_lib_python2_7_site-packages_yaml_cyaml'
p958
(dp959
g6
(dp960
g8
S'_Users_caveman__virtualenvs_rssi_lib_python2_7_site-packages_yaml_cyaml.html'
p961
sg10
S'/Users/caveman/.virtualenvs/rssi/lib/python2.7/site-packages/yaml/cyaml'
p962
sg12
g13
(g14
g15
NtRp963
(dp964
g18
I1
sg19
I0
sg20
I36
sg21
I0
sg22
I0
sg23
I34
sg24
I0
sbssg25
S'\x1dL\xe4\xb0\x07\xca8?\xdb\xfc}Dk\x12\xd5$'
p965
ssS'_Users_caveman__virtualenvs_rssi_lib_python2_7_site-packages_django_utils___init__'
p966
(dp967
g6
(dp968
g8
S'_Users_caveman__virtualenvs_rssi_lib_python2_7_site-packages_django_utils___init__.html'
p969
sg10
S'/Users/caveman/.virtualenvs/rssi/lib/python2.7/site-packages/django/utils/__init__'
p970
sg12
g13
(g14
g15
NtRp971
(dp972
g18
I1
sg19
I0
sg20
I0
sg21
I0
sg22
I0
sg23
I0
sg24
I0
sbssg25
S'\xb0\xc8pN\xaf>\xa0\xbaz\x144\xe0A9\xb8?'
p973
ssS'_Users_caveman__virtualenvs_rssi_lib_python2_7_site-packages_mongoengine_base_datastructures'
p974
(dp975
g6
(dp976
g8
S'_Users_caveman__virtualenvs_rssi_lib_python2_7_site-packages_mongoengine_base_datastructures.html'
p977
sg10
S'/Users/caveman/.virtualenvs/rssi/lib/python2.7/site-packages/mongoengine/base/datastructures'
p978
sg12
g13
(g14
g15
NtRp979
(dp980
g18
I1
sg19
I0
sg20
I102
sg21
I0
sg22
I0
sg23
I64
sg24
I0
sbssg25
S'J\xb1]+\xefY\xe1\xfb*\xb2\x89\xb0\xb70\xcf\xc6'
p981
ssS'_Users_caveman__virtualenvs_rssi_lib_python2_7_site-packages_django_utils_tree'
p982
(dp983
g6
(dp984
g8
S'_Users_caveman__virtualenvs_rssi_lib_python2_7_site-packages_django_utils_tree.html'
p985
sg10
S'/Users/caveman/.virtualenvs/rssi/lib/python2.7/site-packages/django/utils/tree'
p986
sg12
g13
(g14
g15
NtRp987
(dp988
g18
I1
sg19
I0
sg20
I64
sg21
I0
sg22
I0
sg23
I18
sg24
I0
sbssg25
S'\x1b\x86X\x113H\x1c\x1f\x1e\xeb:\xa9\xc6\xe9\x10\xb6'
p989
ssS'_Users_caveman__virtualenvs_rssi_lib_python2_7_site-packages_django_utils_crypto'
p990
(dp991
g6
(dp992
g8
S'_Users_caveman__virtualenvs_rssi_lib_python2_7_site-packages_django_utils_crypto.html'
p993
sg10
S'/Users/caveman/.virtualenvs/rssi/lib/python2.7/site-packages/django/utils/crypto'
p994
sg12
g13
(g14
g15
NtRp995
(dp996
g18
I1
sg19
I0
sg20
I78
sg21
I0
sg22
I0
sg23
I53
sg24
I0
sbssg25
S'|\xd1\xdd9\xae\xefb\xfa\xb0\xbc\x8f\xaf399\xb4'
p997
ssS'_Users_caveman__virtualenvs_rssi_lib_python2_7_site-packages_django_http_response'
p998
(dp999
g6
(dp1000
g8
S'_Users_caveman__virtualenvs_rssi_lib_python2_7_site-packages_django_http_response.html'
p1001
sg10
S'/Users/caveman/.virtualenvs/rssi/lib/python2.7/site-packages/django/http/response'
p1002
sg12
g13
(g14
g15
NtRp1003
(dp1004
g18
I1
sg19
I0
sg20
I236
sg21
I0
sg22
I0
sg23
I143
sg24
I0
sbssg25
S'{!\xbf\xc4\x1c\xb2cw\x18\x00q\x9b\xe3Sh;'
p1005
ssS'_Users_caveman__virtualenvs_rssi_lib_python2_7_site-packages_django_http_utils'
p1006
(dp1007
g6
(dp1008
g8
S'_Users_caveman__virtualenvs_rssi_lib_python2_7_site-packages_django_http_utils.html'
p1009
sg10
S'/Users/caveman/.virtualenvs/rssi/lib/python2.7/site-packages/django/http/utils'
p1010
sg12
g13
(g14
g15
NtRp1011
(dp1012
g18
I1
sg19
I0
sg20
I43
sg21
I0
sg22
I0
sg23
I39
sg24
I0
sbssg25
S'~k\x01\xbaxd2\xab\xa3\xa0\xda0\x07l\x17\x13'
p1013
ssS'_Users_caveman__virtualenvs_rssi_lib_python2_7_site-packages_django_contrib_sessions_backends_db'
p1014
(dp1015
g6
(dp1016
g8
S'_Users_caveman__virtualenvs_rssi_lib_python2_7_site-packages_django_contrib_sessions_backends_db.html'
p1017
sg10
S'/Users/caveman/.virtualenvs/rssi/lib/python2.7/site-packages/django/contrib/sessions/backends/db'
p1018
sg12
g13
(g14
g15
NtRp1019
(dp1020
g18
I1
sg19
I0
sg20
I50
sg21
I0
sg22
I0
sg23
I37
sg24
I0
sbssg25
S'\xb3\x8b\xf8\x07@\x04\x80a\xb9\xc60\xedX\x1cw\xc0'
p1021
ssS'_Users_caveman__virtualenvs_rssi_lib_python2_7_site-packages_bson_son'
p1022
(dp1023
g6
(dp1024
g118
S'_Users_caveman__virtualenvs_rssi_lib_python2_7_site-packages_bson_son.html'
p1025
sg120
S'/Users/caveman/.virtualenvs/rssi/lib/python2.7/site-packages/bson/son'
p1026
sg122
g13
(g14
g15
NtRp1027
(dp1028
g18
I1
sg19
I0
sg20
I126
sg21
I0
sg22
I0
sg23
I63
sg24
I0
sbssg25
S'\xcbk!\x9f\xdd\x15\x8f\xf6I:li\xbd\x1e\xbb\\'
p1029
ssS'_Users_caveman__virtualenvs_rssi_lib_python2_7_site-packages_django_forms_formsets'
p1030
(dp1031
g6
(dp1032
g8
S'_Users_caveman__virtualenvs_rssi_lib_python2_7_site-packages_django_forms_formsets.html'
p1033
sg10
S'/Users/caveman/.virtualenvs/rssi/lib/python2.7/site-packages/django/forms/formsets'
p1034
sg12
g13
(g14
g15
NtRp1035
(dp1036
g18
I1
sg19
I0
sg20
I212
sg21
I0
sg22
I0
sg23
I155
sg24
I0
sbssg25
S'\xc8h\xd5+"\\_>]\x1c}\x99)\xc8%4'
p1037
ssS'_Users_caveman__virtualenvs_rssi_lib_python2_7_site-packages_django_contrib_sessions_backends___init__'
p1038
(dp1039
g6
(dp1040
g8
S'_Users_caveman__virtualenvs_rssi_lib_python2_7_site-packages_django_contrib_sessions_backends___init__.html'
p1041
sg10
S'/Users/caveman/.virtualenvs/rssi/lib/python2.7/site-packages/django/contrib/sessions/backends/__init__'
p1042
sg12
g13
(g14
g15
NtRp1043
(dp1044
g18
I1
sg19
I0
sg20
I0
sg21
I0
sg22
I0
sg23
I0
sg24
I0
sbssg25
S'\xb0\xc8pN\xaf>\xa0\xbaz\x144\xe0A9\xb8?'
p1045
ssS'_Users_caveman__virtualenvs_rssi_lib_python2_7_site-packages_mongoengine_queryset_field_list'
p1046
(dp1047
g6
(dp1048
g118
S'_Users_caveman__virtualenvs_rssi_lib_python2_7_site-packages_mongoengine_queryset_field_list.html'
p1049
sg120
S'/Users/caveman/.virtualenvs/rssi/lib/python2.7/site-packages/mongoengine/queryset/field_list'
p1050
sg122
g13
(g14
g15
NtRp1051
(dp1052
g18
I1
sg19
I0
sg20
I62
sg21
I0
sg22
I0
sg23
I45
sg24
I0
sbssg25
S'\x89bD\t\x88\xbd\xb6\x93\x19\x15\xaa\x8ek\x84\x19\x94'
p1053
ssS'_Users_caveman__virtualenvs_rssi_lib_python2_7_site-packages_django_contrib_staticfiles_management___init__'
p1054
(dp1055
g6
(dp1056
g8
S'_Users_caveman__virtualenvs_rssi_lib_python2_7_site-packages_django_contrib_staticfiles_management___init__.html'
p1057
sg10
S'/Users/caveman/.virtualenvs/rssi/lib/python2.7/site-packages/django/contrib/staticfiles/management/__init__'
p1058
sg12
g13
(g14
g15
NtRp1059
(dp1060
g18
I1
sg19
I0
sg20
I0
sg21
I0
sg22
I0
sg23
I0
sg24
I0
sbssg25
S'\xb0\xc8pN\xaf>\xa0\xbaz\x144\xe0A9\xb8?'
p1061
ssS'_Users_caveman__virtualenvs_rssi_lib_python2_7_site-packages_django_utils_translation_trans_real'
p1062
(dp1063
g6
(dp1064
g8
S'_Users_caveman__virtualenvs_rssi_lib_python2_7_site-packages_django_utils_translation_trans_real.html'
p1065
sg10
S'/Users/caveman/.virtualenvs/rssi/lib/python2.7/site-packages/django/utils/translation/trans_real'
p1066
sg12
g13
(g14
g15
NtRp1067
(dp1068
g18
I1
sg19
I0
sg20
I366
sg21
I0
sg22
I0
sg23
I234
sg24
I0
sbssg25
S'XW\xa1\xddU+\xb3E\xb3\xe7\x0cTg\xe7V\x12'
p1069
ssS'_Users_caveman__virtualenvs_rssi_lib_python2_7_site-packages_django_contrib_auth_models'
p1070
(dp1071
g6
(dp1072
g8
S'_Users_caveman__virtualenvs_rssi_lib_python2_7_site-packages_django_contrib_auth_models.html'
p1073
sg10
S'/Users/caveman/.virtualenvs/rssi/lib/python2.7/site-packages/django/contrib/auth/models'
p1074
sg12
g13
(g14
g15
NtRp1075
(dp1076
g18
I1
sg19
I0
sg20
I270
sg21
I0
sg22
I0
sg23
I127
sg24
I0
sbssg25
S"'\x8aRFk\x9f~\xd8\x7f\xc6U\xd3\xf8(Dn"
p1077
ssS'_Users_caveman__virtualenvs_rssi_lib_python2_7_site-packages_django_utils_datetime_safe'
p1078
(dp1079
g6
(dp1080
g8
S'_Users_caveman__virtualenvs_rssi_lib_python2_7_site-packages_django_utils_datetime_safe.html'
p1081
sg10
S'/Users/caveman/.virtualenvs/rssi/lib/python2.7/site-packages/django/utils/datetime_safe'
p1082
sg12
g13
(g14
g15
NtRp1083
(dp1084
g18
I1
sg19
I0
sg20
I56
sg21
I0
sg22
I0
sg23
I42
sg24
I0
sbssg25
S'\xcf\x16v\x83I\x1c\x906G\x91=\xec\x94\xfdf\xbe'
p1085
ssS'_Users_caveman__virtualenvs_rssi_lib_python2_7_site-packages_django_utils_xmlutils'
p1086
(dp1087
g6
(dp1088
g8
S'_Users_caveman__virtualenvs_rssi_lib_python2_7_site-packages_django_utils_xmlutils.html'
p1089
sg10
S'/Users/caveman/.virtualenvs/rssi/lib/python2.7/site-packages/django/utils/xmlutils'
p1090
sg12
g13
(g14
g15
NtRp1091
(dp1092
g18
I1
sg19
I0
sg20
I8
sg21
I0
sg22
I0
sg23
I5
sg24
I0
sbssg25
S'\xf1J\xb5(\x1cm\xf1\x8bQ\xab\x89\xc1\xce\x91R\x8f'
p1093
ssS'_Users_caveman__virtualenvs_rssi_lib_python2_7_site-packages_django_core_management_sql'
p1094
(dp1095
g6
(dp1096
g8
S'_Users_caveman__virtualenvs_rssi_lib_python2_7_site-packages_django_core_management_sql.html'
p1097
sg10
S'/Users/caveman/.virtualenvs/rssi/lib/python2.7/site-packages/django/core/management/sql'
p1098
sg12
g13
(g14
g15
NtRp1099
(dp1100
g18
I1
sg19
I0
sg20
I115
sg21
I0
sg22
I0
sg23
I77
sg24
I0
sbssg25
S'\x1b\xea\x0eMq\xfe\xd2\x02z\xe7\x0c\xd0cV\xb7.'
p1101
ssS'_Users_caveman__virtualenvs_rssi_lib_python2_7_site-packages_django_utils_tzinfo'
p1102
(dp1103
g6
(dp1104
g8
S'_Users_caveman__virtualenvs_rssi_lib_python2_7_site-packages_django_utils_tzinfo.html'
p1105
sg10
S'/Users/caveman/.virtualenvs/rssi/lib/python2.7/site-packages/django/utils/tzinfo'
p1106
sg12
g13
(g14
g15
NtRp1107
(dp1108
g18
I1
sg19
I0
sg20
I53
sg21
I0
sg22
I0
sg23
I34
sg24
I0
sbssg25
S'o\xd9[\xd8\xee.\xb3U\x02\x1aM~!Ug\x83'
p1109
ssS'_Users_caveman__virtualenvs_rssi_lib_python2_7_site-packages_django_utils_functional'
p1110
(dp1111
g6
(dp1112
g8
S'_Users_caveman__virtualenvs_rssi_lib_python2_7_site-packages_django_utils_functional.html'
p1113
sg10
S'/Users/caveman/.virtualenvs/rssi/lib/python2.7/site-packages/django/utils/functional'
p1114
sg12
g13
(g14
g15
NtRp1115
(dp1116
g18
I1
sg19
I0
sg20
I207
sg21
I0
sg22
I0
sg23
I86
sg24
I0
sbssg25
S'f\xf4\xa3i\xea\x8e\x0e.\xb7\xfdu\xa5\xfa\xa3l\x97'
p1117
ssS'_Users_caveman__virtualenvs_rssi_lib_python2_7_site-packages_django_core_files_base'
p1118
(dp1119
g6
(dp1120
g8
S'_Users_caveman__virtualenvs_rssi_lib_python2_7_site-packages_django_core_files_base.html'
p1121
sg10
S'/Users/caveman/.virtualenvs/rssi/lib/python2.7/site-packages/django/core/files/base'
p1122
sg12
g13
(g14
g15
NtRp1123
(dp1124
g18
I1
sg19
I0
sg20
I106
sg21
I0
sg22
I0
sg23
I70
sg24
I0
sbssg25
S'4\xa9\x80\x03\xbc\x98\xe4u\\@\xe5\x9de\xb8lr'
p1125
ssS'_Users_caveman__virtualenvs_rssi_lib_python2_7_site-packages_django_dispatch_saferef'
p1126
(dp1127
g6
(dp1128
g8
S'_Users_caveman__virtualenvs_rssi_lib_python2_7_site-packages_django_dispatch_saferef.html'
p1129
sg10
S'/Users/caveman/.virtualenvs/rssi/lib/python2.7/site-packages/django/dispatch/saferef'
p1130
sg12
g13
(g14
g15
NtRp1131
(dp1132
g18
I1
sg19
I0
sg20
I84
sg21
I0
sg22
I0
sg23
I61
sg24
I0
sbssg25
S'\x93\xb1\x97\xc2aa\x7fN\xc9GW \xb2\xcd \x9b'
p1133
ssS'_Users_caveman__virtualenvs_rssi_lib_python2_7_site-packages_django_forms_widgets'
p1134
(dp1135
g6
(dp1136
g8
S'_Users_caveman__virtualenvs_rssi_lib_python2_7_site-packages_django_forms_widgets.html'
p1137
sg10
S'/Users/caveman/.virtualenvs/rssi/lib/python2.7/site-packages/django/forms/widgets'
p1138
sg12
g13
(g14
g15
NtRp1139
(dp1140
g18
I1
sg19
I0
sg20
I565
sg21
I0
sg22
I0
sg23
I396
sg24
I0
sbssg25
S'f\x91\x07\xaf\xb1\xa9@\xf6\xa3\x02\x03\x8e\x1f\xae9i'
p1141
ssS'_Users_caveman__virtualenvs_rssi_lib_python2_7_site-packages_pymongo_message'
p1142
(dp1143
g6
(dp1144
g118
S'_Users_caveman__virtualenvs_rssi_lib_python2_7_site-packages_pymongo_message.html'
p1145
sg120
S'/Users/caveman/.virtualenvs/rssi/lib/python2.7/site-packages/pymongo/message'
p1146
sg122
g13
(g14
g15
NtRp1147
(dp1148
g18
I1
sg19
I0
sg20
I149
sg21
I0
sg22
I0
sg23
I96
sg24
I0
sbssg25
S'\xa2r[@\x0b\x83D\xdeP{\x12\x12\x14`T\xa4'
p1149
ssS'_Users_caveman__virtualenvs_rssi_lib_python2_7_site-packages_django_core_mail_message'
p1150
(dp1151
g6
(dp1152
g8
S'_Users_caveman__virtualenvs_rssi_lib_python2_7_site-packages_django_core_mail_message.html'
p1153
sg10
S'/Users/caveman/.virtualenvs/rssi/lib/python2.7/site-packages/django/core/mail/message'
p1154
sg12
g13
(g14
g15
NtRp1155
(dp1156
g18
I1
sg19
I0
sg20
I217
sg21
I0
sg22
I0
sg23
I163
sg24
I0
sbssg25
S'\xd7mL\xc3\xcf\x9bC\xd2\x02P\x19\xf7TF\xc3\xc2'
p1157
ssS'_Users_caveman__virtualenvs_rssi_lib_python2_7_site-packages_django_core_management_color'
p1158
(dp1159
g6
(dp1160
g8
S'_Users_caveman__virtualenvs_rssi_lib_python2_7_site-packages_django_core_management_color.html'
p1161
sg10
S'/Users/caveman/.virtualenvs/rssi/lib/python2.7/site-packages/django/core/management/color'
p1162
sg12
g13
(g14
g15
NtRp1163
(dp1164
g18
I1
sg19
I0
sg20
I28
sg21
I0
sg22
I0
sg23
I3
sg24
I0
sbssg25
S'\x1f\x18m\xdf\x9b&\x90\xbe\xf5\x15C\x10\x8e\x16\xcd\xc4'
p1165
ssS'_Users_caveman__virtualenvs_rssi_lib_python2_7_site-packages_django_db_models___init__'
p1166
(dp1167
g6
(dp1168
g8
S'_Users_caveman__virtualenvs_rssi_lib_python2_7_site-packages_django_db_models___init__.html'
p1169
sg10
S'/Users/caveman/.virtualenvs/rssi/lib/python2.7/site-packages/django/db/models/__init__'
p1170
sg12
g13
(g14
g15
NtRp1171
(dp1172
g18
I1
sg19
I0
sg20
I22
sg21
I0
sg22
I0
sg23
I5
sg24
I0
sbssg25
S'\xe0\x1a&\xbc\x03aQ \x8f\xa5Y\xf1\xe6\xcb\xc4\xcf'
p1173
ssS'_Users_caveman__virtualenvs_rssi_lib_python2_7_site-packages_django_core_management_validation'
p1174
(dp1175
g6
(dp1176
g8
S'_Users_caveman__virtualenvs_rssi_lib_python2_7_site-packages_django_core_management_validation.html'
p1177
sg10
S'/Users/caveman/.virtualenvs/rssi/lib/python2.7/site-packages/django/core/management/validation'
p1178
sg12
g13
(g14
g15
NtRp1179
(dp1180
g18
I1
sg19
I0
sg20
I246
sg21
I0
sg22
I0
sg23
I126
sg24
I0
sbssg25
S"\xeb'i;8;\xa7\xed\x178\x8b\x8b]\x10\xf0\x84"
p1181
ssS'_Users_caveman__virtualenvs_rssi_lib_python2_7_site-packages_bson___init__'
p1182
(dp1183
g6
(dp1184
g118
S'_Users_caveman__virtualenvs_rssi_lib_python2_7_site-packages_bson___init__.html'
p1185
sg120
S'/Users/caveman/.virtualenvs/rssi/lib/python2.7/site-packages/bson/__init__'
p1186
sg122
g13
(g14
g15
NtRp1187
(dp1188
g18
I1
sg19
I0
sg20
I375
sg21
I0
sg22
I0
sg23
I280
sg24
I0
sbssg25
S'\x93q9\x10O\x8d\xed\x98\xbf\xec\xaf\xecE\xfd\xab\xfd'
p1189
ssS'_Users_caveman__virtualenvs_rssi_lib_python2_7_site-packages_django_middleware_csrf'
p1190
(dp1191
g6
(dp1192
g8
S'_Users_caveman__virtualenvs_rssi_lib_python2_7_site-packages_django_middleware_csrf.html'
p1193
sg10
S'/Users/caveman/.virtualenvs/rssi/lib/python2.7/site-packages/django/middleware/csrf'
p1194
sg12
g13
(g14
g15
NtRp1195
(dp1196
g18
I1
sg19
I0
sg20
I86
sg21
I0
sg22
I0
sg23
I59
sg24
I0
sbssg25
S'*h*\x02\xffb[\xf68YG[\x05\x97\x11\x15'
p1197
ssS'_Users_caveman__virtualenvs_rssi_lib_python2_7_site-packages_django_contrib_sites_management'
p1198
(dp1199
g6
(dp1200
g8
S'_Users_caveman__virtualenvs_rssi_lib_python2_7_site-packages_django_contrib_sites_management.html'
p1201
sg10
S'/Users/caveman/.virtualenvs/rssi/lib/python2.7/site-packages/django/contrib/sites/management'
p1202
sg12
g13
(g14
g15
NtRp1203
(dp1204
g18
I1
sg19
I0
sg20
I20
sg21
I0
sg22
I0
sg23
I6
sg24
I0
sbssg25
S'\x7f\x8f\xcc,g\x17\xed\xc1V\xdb\xd7e3\xe5\xe6\xca'
p1205
ssS'_Users_caveman__virtualenvs_rssi_lib_python2_7_site-packages_django_core_servers_basehttp'
p1206
(dp1207
g6
(dp1208
g8
S'_Users_caveman__virtualenvs_rssi_lib_python2_7_site-packages_django_core_servers_basehttp.html'
p1209
sg10
S'/Users/caveman/.virtualenvs/rssi/lib/python2.7/site-packages/django/core/servers/basehttp'
p1210
sg12
g13
(g14
g15
NtRp1211
(dp1212
g18
I1
sg19
I0
sg20
I111
sg21
I0
sg22
I0
sg23
I77
sg24
I0
sbssg25
S'\xc8\xefs\xe4\n@3\xd1\x17\x97\x9ae\xc3h\xee<'
p1213
ssS'_Users_caveman__virtualenvs_rssi_lib_python2_7_site-packages_django_db_backends_sqlite3_client'
p1214
(dp1215
g6
(dp1216
g8
S'_Users_caveman__virtualenvs_rssi_lib_python2_7_site-packages_django_db_backends_sqlite3_client.html'
p1217
sg10
S'/Users/caveman/.virtualenvs/rssi/lib/python2.7/site-packages/django/db/backends/sqlite3/client'
p1218
sg12
g13
(g14
g15
NtRp1219
(dp1220
g18
I1
sg19
I0
sg20
I10
sg21
I0
sg22
I0
sg23
I4
sg24
I0
sbssg25
S'\xc1M\xc7\x1f ySpt\x02\xcb\x82\xbeT\x1c\xaa'
p1221
ssS'_Users_caveman__virtualenvs_rssi_lib_python2_7_site-packages_django_contrib___init__'
p1222
(dp1223
g6
(dp1224
g8
S'_Users_caveman__virtualenvs_rssi_lib_python2_7_site-packages_django_contrib___init__.html'
p1225
sg10
S'/Users/caveman/.virtualenvs/rssi/lib/python2.7/site-packages/django/contrib/__init__'
p1226
sg12
g13
(g14
g15
NtRp1227
(dp1228
g18
I1
sg19
I0
sg20
I0
sg21
I0
sg22
I0
sg23
I0
sg24
I0
sbssg25
S'\xb0\xc8pN\xaf>\xa0\xbaz\x144\xe0A9\xb8?'
p1229
ssS'_Users_caveman__virtualenvs_rssi_lib_python2_7_site-packages_mongoengine_queryset_queryset'
p1230
(dp1231
g6
(dp1232
g118
S'_Users_caveman__virtualenvs_rssi_lib_python2_7_site-packages_mongoengine_queryset_queryset.html'
p1233
sg120
S'/Users/caveman/.virtualenvs/rssi/lib/python2.7/site-packages/mongoengine/queryset/queryset'
p1234
sg122
g13
(g14
g15
NtRp1235
(dp1236
g18
I1
sg19
I0
sg20
I666
sg21
I0
sg22
I0
sg23
I453
sg24
I0
sbssg25
S'bF@\x92\x0bv\xf5>\xdeJ\n[\xcf|\x18\xee'
p1237
ssS'manage'
p1238
(dp1239
g6
(dp1240
g8
S'manage.html'
p1241
sg10
g1238
sg12
g13
(g14
g15
NtRp1242
(dp1243
g18
I1
sg19
I0
sg20
I6
sg21
I0
sg22
I0
sg23
I0
sg24
I0
sbssg25
S'\x8d\xea`a\x93\xe4\x93\xdb.\xbc\xbb1\x0ctI\x87'
p1244
ssS'_Users_caveman__virtualenvs_rssi_lib_python2_7_site-packages_django___init__'
p1245
(dp1246
g6
(dp1247
g8
S'_Users_caveman__virtualenvs_rssi_lib_python2_7_site-packages_django___init__.html'
p1248
sg10
S'/Users/caveman/.virtualenvs/rssi/lib/python2.7/site-packages/django/__init__'
p1249
sg12
g13
(g14
g15
NtRp1250
(dp1251
g18
I1
sg19
I0
sg20
I4
sg21
I0
sg22
I0
sg23
I0
sg24
I0
sbssg25
S'\xb5>\t0\xfb\x80\x1d\xbc\x14i\xac\xb1>\xa5\xfa\xba'
p1252
ssS'_Users_caveman__virtualenvs_rssi_lib_python2_7_site-packages_django_utils_ipv6'
p1253
(dp1254
g6
(dp1255
g8
S'_Users_caveman__virtualenvs_rssi_lib_python2_7_site-packages_django_utils_ipv6.html'
p1256
sg10
S'/Users/caveman/.virtualenvs/rssi/lib/python2.7/site-packages/django/utils/ipv6'
p1257
sg12
g13
(g14
g15
NtRp1258
(dp1259
g18
I1
sg19
I0
sg20
I108
sg21
I0
sg22
I0
sg23
I100
sg24
I0
sbssg25
S'\x19|P\xf8\x82\xf4q<E\xfd\r\xbc\xff\x08.S'
p1260
ssS'_Users_caveman__virtualenvs_rssi_lib_python2_7_site-packages_yaml_serializer'
p1261
(dp1262
g6
(dp1263
g8
S'_Users_caveman__virtualenvs_rssi_lib_python2_7_site-packages_yaml_serializer.html'
p1264
sg10
S'/Users/caveman/.virtualenvs/rssi/lib/python2.7/site-packages/yaml/serializer'
p1265
sg12
g13
(g14
g15
NtRp1266
(dp1267
g18
I1
sg19
I0
sg20
I85
sg21
I0
sg22
I0
sg23
I70
sg24
I0
sbssg25
S'u\xafv\x8fy\x88\xc9l"\xe3\x0f5@\\UF'
p1268
ssS'_Users_caveman__virtualenvs_rssi_lib_python2_7_site-packages_django_contrib_contenttypes_management'
p1269
(dp1270
g6
(dp1271
g8
S'_Users_caveman__virtualenvs_rssi_lib_python2_7_site-packages_django_contrib_contenttypes_management.html'
p1272
sg10
S'/Users/caveman/.virtualenvs/rssi/lib/python2.7/site-packages/django/contrib/contenttypes/management'
p1273
sg12
g13
(g14
g15
NtRp1274
(dp1275
g18
I1
sg19
I0
sg20
I40
sg21
I0
sg22
I0
sg23
I17
sg24
I0
sbssg25
S'\xe071\x8b\x81A=\xee\xc7+(G\xaa\x12\xb3('
p1276
ssS'_Users_caveman__virtualenvs_rssi_lib_python2_7_site-packages_pymongo_common'
p1277
(dp1278
g6
(dp1279
g118
S'_Users_caveman__virtualenvs_rssi_lib_python2_7_site-packages_pymongo_common.html'
p1280
sg120
S'/Users/caveman/.virtualenvs/rssi/lib/python2.7/site-packages/pymongo/common'
p1281
sg122
g13
(g14
g15
NtRp1282
(dp1283
g18
I1
sg19
I0
sg20
I235
sg21
I0
sg22
I0
sg23
I107
sg24
I0
sbssg25
S';\x94\xdc\xae)Z6\xef\xd0\xcb\xce\x81\xe5h\xcd\xea'
p1284
ssS'_Users_caveman__virtualenvs_rssi_lib_python2_7_site-packages_bson_code'
p1285
(dp1286
g6
(dp1287
g8
S'_Users_caveman__virtualenvs_rssi_lib_python2_7_site-packages_bson_code.html'
p1288
sg10
S'/Users/caveman/.virtualenvs/rssi/lib/python2.7/site-packages/bson/code'
p1289
sg12
g13
(g14
g15
NtRp1290
(dp1291
g18
I1
sg19
I0
sg20
I26
sg21
I0
sg22
I0
sg23
I19
sg24
I0
sbssg25
S"\x97\xfb\xfc\xc6V't\xcd\xa7\x08\x91\xbd_\x1eO6"
p1292
ssS'_Users_caveman__virtualenvs_rssi_lib_python2_7_site-packages_django_contrib_auth_hashers'
p1293
(dp1294
g6
(dp1295
g8
S'_Users_caveman__virtualenvs_rssi_lib_python2_7_site-packages_django_contrib_auth_hashers.html'
p1296
sg10
S'/Users/caveman/.virtualenvs/rssi/lib/python2.7/site-packages/django/contrib/auth/hashers'
p1297
sg12
g13
(g14
g15
NtRp1298
(dp1299
g18
I1
sg19
I0
sg20
I242
sg21
I0
sg22
I0
sg23
I156
sg24
I0
sbssg25
S'(\x98\xdc/\xac`\xe6\x98\xd0\xf4_Ut\x05\xccH'
p1300
ssS'_Users_caveman__virtualenvs_rssi_lib_python2_7_site-packages_django_contrib_auth___init__'
p1301
(dp1302
g6
(dp1303
g8
S'_Users_caveman__virtualenvs_rssi_lib_python2_7_site-packages_django_contrib_auth___init__.html'
p1304
sg10
S'/Users/caveman/.virtualenvs/rssi/lib/python2.7/site-packages/django/contrib/auth/__init__'
p1305
sg12
g13
(g14
g15
NtRp1306
(dp1307
g18
I1
sg19
I0
sg20
I91
sg21
I0
sg22
I0
sg23
I68
sg24
I0
sbssg25
S'\x84D\xd1r\xd0\xffu\xcf\xc1^)Z\xe5\x9d\xc3\xa1'
p1308
ssS'_Users_caveman__virtualenvs_rssi_lib_python2_7_site-packages_pymongo_pool'
p1309
(dp1310
g6
(dp1311
g118
S'_Users_caveman__virtualenvs_rssi_lib_python2_7_site-packages_pymongo_pool.html'
p1312
sg120
S'/Users/caveman/.virtualenvs/rssi/lib/python2.7/site-packages/pymongo/pool'
p1313
sg122
g13
(g14
g15
NtRp1314
(dp1315
g18
I1
sg19
I0
sg20
I275
sg21
I0
sg22
I0
sg23
I122
sg24
I0
sbssg25
S'kA\xf5\x8b7| Q\xf0\xaa\xe1!\xa0`\xe4>'
p1316
ssS'_Users_caveman__virtualenvs_rssi_lib_python2_7_site-packages_django_template_loaders_cached'
p1317
(dp1318
g6
(dp1319
g8
S'_Users_caveman__virtualenvs_rssi_lib_python2_7_site-packages_django_template_loaders_cached.html'
p1320
sg10
S'/Users/caveman/.virtualenvs/rssi/lib/python2.7/site-packages/django/template/loaders/cached'
p1321
sg12
g13
(g14
g15
NtRp1322
(dp1323
g18
I1
sg19
I0
sg20
I40
sg21
I0
sg22
I0
sg23
I29
sg24
I0
sbssg25
S"\xb6m'[\xd1h\x8ePw\\*\xeaC\x08\x16\xd5"
p1324
ssS'_Users_caveman__virtualenvs_rssi_lib_python2_7_site-packages_yaml_parser'
p1325
(dp1326
g6
(dp1327
g8
S'_Users_caveman__virtualenvs_rssi_lib_python2_7_site-packages_yaml_parser.html'
p1328
sg10
S'/Users/caveman/.virtualenvs/rssi/lib/python2.7/site-packages/yaml/parser'
p1329
sg12
g13
(g14
g15
NtRp1330
(dp1331
g18
I1
sg19
I0
sg20
I352
sg21
I0
sg22
I0
sg23
I312
sg24
I0
sbssg25
S'\xdd\xedY\xaaYR\xab\x02\x1b\xcd\xa6\xcan^6F'
p1332
ssS'_Users_caveman__virtualenvs_rssi_lib_python2_7_site-packages_django_db_models_sql_compiler'
p1333
(dp1334
g6
(dp1335
g8
S'_Users_caveman__virtualenvs_rssi_lib_python2_7_site-packages_django_db_models_sql_compiler.html'
p1336
sg10
S'/Users/caveman/.virtualenvs/rssi/lib/python2.7/site-packages/django/db/models/sql/compiler'
p1337
sg12
g13
(g14
g15
NtRp1338
(dp1339
g18
I1
sg19
I0
sg20
I659
sg21
I0
sg22
I0
sg23
I380
sg24
I0
sbssg25
S'\x14\x8b\xceY\xee\xbc\xb4\x87\xc7P\x11\x05\xa7k\\"'
p1340
ssS'_Users_caveman__virtualenvs_rssi_lib_python2_7_site-packages_django_core_serializers_pyyaml'
p1341
(dp1342
g6
(dp1343
g8
S'_Users_caveman__virtualenvs_rssi_lib_python2_7_site-packages_django_core_serializers_pyyaml.html'
p1344
sg10
S'/Users/caveman/.virtualenvs/rssi/lib/python2.7/site-packages/django/core/serializers/pyyaml'
p1345
sg12
g13
(g14
g15
NtRp1346
(dp1347
g18
I1
sg19
I0
sg20
I35
sg21
I0
sg22
I0
sg23
I18
sg24
I0
sbssg25
S'J\x145JL\x05\xc0\x9a\xe5\x1a\x9b\xae\xe4y\xc3h'
p1348
ssS'_Users_caveman__virtualenvs_rssi_lib_python2_7_site-packages_yaml_emitter'
p1349
(dp1350
g6
(dp1351
g8
S'_Users_caveman__virtualenvs_rssi_lib_python2_7_site-packages_yaml_emitter.html'
p1352
sg10
S'/Users/caveman/.virtualenvs/rssi/lib/python2.7/site-packages/yaml/emitter'
p1353
sg12
g13
(g14
g15
NtRp1354
(dp1355
g18
I1
sg19
I0
sg20
I840
sg21
I0
sg22
I0
sg23
I771
sg24
I0
sbssg25
S'\x1b\xee.)s\x94\x06\x0e\x91\xc39\xac\xabJQr'
p1356
ssS'_Users_caveman__virtualenvs_rssi_lib_python2_7_site-packages_yaml___init__'
p1357
(dp1358
g6
(dp1359
g8
S'_Users_caveman__virtualenvs_rssi_lib_python2_7_site-packages_yaml___init__.html'
p1360
sg10
S'/Users/caveman/.virtualenvs/rssi/lib/python2.7/site-packages/yaml/__init__'
p1361
sg12
g13
(g14
g15
NtRp1362
(dp1363
g18
I1
sg19
I0
sg20
I138
sg21
I0
sg22
I0
sg23
I91
sg24
I0
sbssg25
S"\xc1\xe6~\x90'\x8a\x06\xbe\x9b\x99\xf3J\x89\x7fH}"
p1364
ssS'_Users_caveman__virtualenvs_rssi_lib_python2_7_site-packages_django_db___init__'
p1365
(dp1366
g6
(dp1367
g8
S'_Users_caveman__virtualenvs_rssi_lib_python2_7_site-packages_django_db___init__.html'
p1368
sg10
S'/Users/caveman/.virtualenvs/rssi/lib/python2.7/site-packages/django/db/__init__'
p1369
sg12
g13
(g14
g15
NtRp1370
(dp1371
g18
I1
sg19
I0
sg20
I34
sg21
I0
sg22
I0
sg23
I14
sg24
I0
sbssg25
S'%\x16\xef\xa0\xab\x87\xe7\x9c[\x0f\x90\x13\xd0\x89X|'
p1372
ssS'_Users_caveman__virtualenvs_rssi_lib_python2_7_site-packages_django_template___init__'
p1373
(dp1374
g6
(dp1375
g8
S'_Users_caveman__virtualenvs_rssi_lib_python2_7_site-packages_django_template___init__.html'
p1376
sg10
S'/Users/caveman/.virtualenvs/rssi/lib/python2.7/site-packages/django/template/__init__'
p1377
sg12
g13
(g14
g15
NtRp1378
(dp1379
g18
I1
sg19
I0
sg20
I6
sg21
I0
sg22
I0
sg23
I0
sg24
I0
sbssg25
S'\xb6\xa0l\x13\xa8q\x87\r\xa8\xea\xdd\x99\xef\xf5k\xd3'
p1380
ssS'_Users_caveman__virtualenvs_rssi_lib_python2_7_site-packages_django_template_defaulttags'
p1381
(dp1382
g6
(dp1383
g8
S'_Users_caveman__virtualenvs_rssi_lib_python2_7_site-packages_django_template_defaulttags.html'
p1384
sg10
S'/Users/caveman/.virtualenvs/rssi/lib/python2.7/site-packages/django/template/defaulttags'
p1385
sg12
g13
(g14
g15
NtRp1386
(dp1387
g18
I1
sg19
I0
sg20
I608
sg21
I0
sg22
I0
sg23
I489
sg24
I0
sbssg25
S")\xfdL\xe0\xc9\x10@\x1fv\xe4}\xf5\x8c\xe7'\x8f"
p1388
ssS'_Users_caveman__virtualenvs_rssi_lib_python2_7_site-packages_django_test_utils'
p1389
(dp1390
g6
(dp1391
g8
S'_Users_caveman__virtualenvs_rssi_lib_python2_7_site-packages_django_test_utils.html'
p1392
sg10
S'/Users/caveman/.virtualenvs/rssi/lib/python2.7/site-packages/django/test/utils'
p1393
sg12
g13
(g14
g15
NtRp1394
(dp1395
g18
I1
sg19
I0
sg20
I188
sg21
I0
sg22
I0
sg23
I125
sg24
I0
sbssg25
S'\xbe\x0e\xf3\xcb\xa2$.\xbaE\x9d\xef\x9e\xdb#\xb4}'
p1396
ssS'_Users_caveman__virtualenvs_rssi_lib_python2_7_site-packages_django_test_simple'
p1397
(dp1398
g6
(dp1399
g8
S'_Users_caveman__virtualenvs_rssi_lib_python2_7_site-packages_django_test_simple.html'
p1400
sg10
S'/Users/caveman/.virtualenvs/rssi/lib/python2.7/site-packages/django/test/simple'
p1401
sg12
g13
(g14
g15
NtRp1402
(dp1403
g18
I1
sg19
I0
sg20
I192
sg21
I0
sg22
I0
sg23
I56
sg24
I0
sbssg25
S'\xcc\x187\x07ji\x0e=\xc5\xc0\xc3\xe0\xd0\xe1\xae\xc8'
p1404
ssS'_Users_caveman__virtualenvs_rssi_lib_python2_7_site-packages_django_db_models_sql___init__'
p1405
(dp1406
g6
(dp1407
g8
S'_Users_caveman__virtualenvs_rssi_lib_python2_7_site-packages_django_db_models_sql___init__.html'
p1408
sg10
S'/Users/caveman/.virtualenvs/rssi/lib/python2.7/site-packages/django/db/models/sql/__init__'
p1409
sg12
g13
(g14
g15
NtRp1410
(dp1411
g18
I1
sg19
I0
sg20
I6
sg21
I0
sg22
I0
sg23
I0
sg24
I0
sbssg25
S'\xea\xf8\xff\x94\xe8\x06\xd7@N\x8e\xb9\x9b)&=f'
p1412
ssS'_Users_caveman__virtualenvs_rssi_lib_python2_7_site-packages_django_forms___init__'
p1413
(dp1414
g6
(dp1415
g8
S'_Users_caveman__virtualenvs_rssi_lib_python2_7_site-packages_django_forms___init__.html'
p1416
sg10
S'/Users/caveman/.virtualenvs/rssi/lib/python2.7/site-packages/django/forms/__init__'
p1417
sg12
g13
(g14
g15
NtRp1418
(dp1419
g18
I1
sg19
I0
sg20
I6
sg21
I0
sg22
I0
sg23
I0
sg24
I0
sbssg25
S"\xfb\x98'\xfe<\x95\xf2Q\xfe,\xaeF\t[\xfeP"
p1420
ssS'_Users_caveman__virtualenvs_rssi_lib_python2_7_site-packages_mongoengine_base_common'
p1421
(dp1422
g6
(dp1423
g8
S'_Users_caveman__virtualenvs_rssi_lib_python2_7_site-packages_mongoengine_base_common.html'
p1424
sg10
S'/Users/caveman/.virtualenvs/rssi/lib/python2.7/site-packages/mongoengine/base/common'
p1425
sg12
g13
(g14
g15
NtRp1426
(dp1427
g18
I1
sg19
I0
sg20
I15
sg21
I0
sg22
I0
sg23
I10
sg24
I0
sbssg25
S'\x97\xe1\xdf\xbdU\n c\xd2\xba\x89\xd6\x08\x86\xfc\xfe'
p1428
ssS'_Users_caveman__virtualenvs_rssi_lib_python2_7_site-packages_django_db_backends_util'
p1429
(dp1430
g6
(dp1431
g8
S'_Users_caveman__virtualenvs_rssi_lib_python2_7_site-packages_django_db_backends_util.html'
p1432
sg10
S'/Users/caveman/.virtualenvs/rssi/lib/python2.7/site-packages/django/db/backends/util'
p1433
sg12
g13
(g14
g15
NtRp1434
(dp1435
g18
I1
sg19
I0
sg20
I94
sg21
I0
sg22
I0
sg23
I60
sg24
I0
sbssg25
S'\xd5\xdd\xd2\x1e3\x96\x0e\xf7\x03\xe1r\xe1\x7f\xb0Y\x92'
p1436
ssS'_Users_caveman__virtualenvs_rssi_lib_python2_7_site-packages_django_db_models_related'
p1437
(dp1438
g6
(dp1439
g8
S'_Users_caveman__virtualenvs_rssi_lib_python2_7_site-packages_django_db_models_related.html'
p1440
sg10
S'/Users/caveman/.virtualenvs/rssi/lib/python2.7/site-packages/django/db/models/related'
p1441
sg12
g13
(g14
g15
NtRp1442
(dp1443
g18
I1
sg19
I0
sg20
I41
sg21
I0
sg22
I0
sg23
I17
sg24
I0
sbssg25
S'E\\w\xe5I\xe76K\x0f\xf1\x9dw\xba\xb1|\x1e'
p1444
ssS'_Users_caveman__virtualenvs_rssi_lib_python2_7_site-packages_bson_tz_util'
p1445
(dp1446
g6
(dp1447
g8
S'_Users_caveman__virtualenvs_rssi_lib_python2_7_site-packages_bson_tz_util.html'
p1448
sg10
S'/Users/caveman/.virtualenvs/rssi/lib/python2.7/site-packages/bson/tz_util'
p1449
sg12
g13
(g14
g15
NtRp1450
(dp1451
g18
I1
sg19
I0
sg20
I19
sg21
I0
sg22
I0
sg23
I3
sg24
I0
sbssg25
S'w\xcb\xfdlbL7\xae\xe3Y\x16)_\xd3\x88>'
p1452
ssS'_Users_caveman__virtualenvs_rssi_lib_python2_7_site-packages_bson_timestamp'
p1453
(dp1454
g6
(dp1455
g8
S'_Users_caveman__virtualenvs_rssi_lib_python2_7_site-packages_bson_timestamp.html'
p1456
sg10
S'/Users/caveman/.virtualenvs/rssi/lib/python2.7/site-packages/bson/timestamp'
p1457
sg12
g13
(g14
g15
NtRp1458
(dp1459
g18
I1
sg19
I0
sg20
I35
sg21
I0
sg22
I0
sg23
I22
sg24
I0
sbssg25
S'\x07\x8cSE\xf2L\xb7v\x9bE;\xe5 \xf7\xae\xbc'
p1460
ssS'_Users_caveman__virtualenvs_rssi_lib_python2_7_site-packages_django_core_handlers_wsgi'
p1461
(dp1462
g6
(dp1463
g8
S'_Users_caveman__virtualenvs_rssi_lib_python2_7_site-packages_django_core_handlers_wsgi.html'
p1464
sg10
S'/Users/caveman/.virtualenvs/rssi/lib/python2.7/site-packages/django/core/handlers/wsgi'
p1465
sg12
g13
(g14
g15
NtRp1466
(dp1467
g18
I1
sg19
I0
sg20
I150
sg21
I0
sg22
I0
sg23
I110
sg24
I0
sbssg25
S"W1}\xfc&\xa7'\xe1\x8c\x120C\xc0\xed\x00\x8f"
p1468
ssS'_Users_caveman__virtualenvs_rssi_lib_python2_7_site-packages_django_core_mail_utils'
p1469
(dp1470
g6
(dp1471
g8
S'_Users_caveman__virtualenvs_rssi_lib_python2_7_site-packages_django_core_mail_utils.html'
p1472
sg10
S'/Users/caveman/.virtualenvs/rssi/lib/python2.7/site-packages/django/core/mail/utils'
p1473
sg12
g13
(g14
g15
NtRp1474
(dp1475
g18
I1
sg19
I0
sg20
I9
sg21
I0
sg22
I0
sg23
I4
sg24
I0
sbssg25
S'q\x8f\x86\xa8\x10\xa1\x04\x98^\x0e\xe8\x93\xb7X\xaan'
p1476
ssS'_Users_caveman__virtualenvs_rssi_lib_python2_7_site-packages_django_core_handlers___init__'
p1477
(dp1478
g6
(dp1479
g8
S'_Users_caveman__virtualenvs_rssi_lib_python2_7_site-packages_django_core_handlers___init__.html'
p1480
sg10
S'/Users/caveman/.virtualenvs/rssi/lib/python2.7/site-packages/django/core/handlers/__init__'
p1481
sg12
g13
(g14
g15
NtRp1482
(dp1483
g18
I1
sg19
I0
sg20
I0
sg21
I0
sg22
I0
sg23
I0
sg24
I0
sbssg25
S'\xb0\xc8pN\xaf>\xa0\xbaz\x144\xe0A9\xb8?'
p1484
ssS'_Users_caveman__virtualenvs_rssi_lib_python2_7_site-packages_django_utils_translation___init__'
p1485
(dp1486
g6
(dp1487
g8
S'_Users_caveman__virtualenvs_rssi_lib_python2_7_site-packages_django_utils_translation___init__.html'
p1488
sg10
S'/Users/caveman/.virtualenvs/rssi/lib/python2.7/site-packages/django/utils/translation/__init__'
p1489
sg12
g13
(g14
g15
NtRp1490
(dp1491
g18
I1
sg19
I0
sg20
I78
sg21
I0
sg22
I0
sg23
I27
sg24
I0
sbssg25
S"?\r\xa3'\xdbiUZI\xadq\xf0\xe4\x10\xa5\x1e"
p1492
ssS'_Users_caveman__virtualenvs_rssi_lib_python2_7_site-packages_django_conf_global_settings'
p1493
(dp1494
g6
(dp1495
g8
S'_Users_caveman__virtualenvs_rssi_lib_python2_7_site-packages_django_conf_global_settings.html'
p1496
sg10
S'/Users/caveman/.virtualenvs/rssi/lib/python2.7/site-packages/django/conf/global_settings'
p1497
sg12
g13
(g14
g15
NtRp1498
(dp1499
g18
I1
sg19
I0
sg20
I120
sg21
I0
sg22
I0
sg23
I0
sg24
I0
sbssg25
S'\x8f\xb1\xc1\xf1\x9c^\x19\x84\xe4\xc0\x17\xe1\x85\xa1q}'
p1500
ssS'_Users_caveman__virtualenvs_rssi_lib_python2_7_site-packages_django_views_static'
p1501
(dp1502
g6
(dp1503
g8
S'_Users_caveman__virtualenvs_rssi_lib_python2_7_site-packages_django_views_static.html'
p1504
sg10
S'/Users/caveman/.virtualenvs/rssi/lib/python2.7/site-packages/django/views/static'
p1505
sg12
g13
(g14
g15
NtRp1506
(dp1507
g18
I1
sg19
I0
sg20
I76
sg21
I0
sg22
I0
sg23
I57
sg24
I0
sbssg25
S'\xd2\xfe\xdd\xc7\xb1\xa9"\x8e\xe1K~\xff\xb3g\xea\xd1'
p1508
ssS'_Users_caveman__virtualenvs_rssi_lib_python2_7_site-packages_django_test_client'
p1509
(dp1510
g6
(dp1511
g8
S'_Users_caveman__virtualenvs_rssi_lib_python2_7_site-packages_django_test_client.html'
p1512
sg10
S'/Users/caveman/.virtualenvs/rssi/lib/python2.7/site-packages/django/test/client'
p1513
sg12
g13
(g14
g15
NtRp1514
(dp1515
g18
I1
sg19
I0
sg20
I276
sg21
I0
sg22
I0
sg23
I196
sg24
I0
sbssg25
S'\n:\xbcl\x91\x8d\xfe\x01\x93\x1a,C\x1do\x9a\x0e'
p1516
ssS'_Users_caveman__virtualenvs_rssi_lib_python2_7_site-packages_bson_min_key'
p1517
(dp1518
g6
(dp1519
g8
S'_Users_caveman__virtualenvs_rssi_lib_python2_7_site-packages_bson_min_key.html'
p1520
sg10
S'/Users/caveman/.virtualenvs/rssi/lib/python2.7/site-packages/bson/min_key'
p1521
sg12
g13
(g14
g15
NtRp1522
(dp1523
g18
I1
sg19
I0
sg20
I10
sg21
I0
sg22
I0
sg23
I5
sg24
I0
sbssg25
S'\xc8\x99\xff\xbb4wS\xdeV\xc0m\xab\x14\x00y\x02'
p1524
ssS'_Users_caveman__virtualenvs_rssi_lib_python2_7_site-packages_bson_py3compat'
p1525
(dp1526
g6
(dp1527
g8
S'_Users_caveman__virtualenvs_rssi_lib_python2_7_site-packages_bson_py3compat.html'
p1528
sg10
S'/Users/caveman/.virtualenvs/rssi/lib/python2.7/site-packages/bson/py3compat'
p1529
sg12
g13
(g14
g15
NtRp1530
(dp1531
g18
I1
sg19
I0
sg20
I23
sg21
I0
sg22
I0
sg23
I11
sg24
I0
sbssg25
S'M\x0e\\\xa7`\x1bx1rpzh\xf5\xeb\xeb\x17'
p1532
ssS'_Users_caveman__virtualenvs_rssi_lib_python2_7_site-packages_django_core_urlresolvers'
p1533
(dp1534
g6
(dp1535
g8
S'_Users_caveman__virtualenvs_rssi_lib_python2_7_site-packages_django_core_urlresolvers.html'
p1536
sg10
S'/Users/caveman/.virtualenvs/rssi/lib/python2.7/site-packages/django/core/urlresolvers'
p1537
sg12
g13
(g14
g15
NtRp1538
(dp1539
g18
I1
sg19
I0
sg20
I349
sg21
I0
sg22
I0
sg23
I276
sg24
I0
sbssg25
S'-\xcfV\\\xe1\x9bM\xcb\x1b\x1e\x96OoU\xdaG'
p1540
ssS'_Users_caveman__virtualenvs_rssi_lib_python2_7_site-packages_django_db_backends_creation'
p1541
(dp1542
g6
(dp1543
g8
S'_Users_caveman__virtualenvs_rssi_lib_python2_7_site-packages_django_db_backends_creation.html'
p1544
sg10
S'/Users/caveman/.virtualenvs/rssi/lib/python2.7/site-packages/django/db/backends/creation'
p1545
sg12
g13
(g14
g15
NtRp1546
(dp1547
g18
I1
sg19
I0
sg20
I228
sg21
I0
sg22
I0
sg23
I96
sg24
I0
sbssg25
S'\x02\x82\xa0\x9c+\xa7\x14\xfe\x87\xdf\xaf\x03&\xd1\x89\x88'
p1548
ssS'_Users_caveman__virtualenvs_rssi_lib_python2_7_site-packages_django_core_cache_backends___init__'
p1549
(dp1550
g6
(dp1551
g8
S'_Users_caveman__virtualenvs_rssi_lib_python2_7_site-packages_django_core_cache_backends___init__.html'
p1552
sg10
S'/Users/caveman/.virtualenvs/rssi/lib/python2.7/site-packages/django/core/cache/backends/__init__'
p1553
sg12
g13
(g14
g15
NtRp1554
(dp1555
g18
I1
sg19
I0
sg20
I0
sg21
I0
sg22
I0
sg23
I0
sg24
I0
sbssg25
S'\xb0\xc8pN\xaf>\xa0\xbaz\x144\xe0A9\xb8?'
p1556
ssS'_Users_caveman__virtualenvs_rssi_lib_python2_7_site-packages_django_core_handlers_base'
p1557
(dp1558
g6
(dp1559
g8
S'_Users_caveman__virtualenvs_rssi_lib_python2_7_site-packages_django_core_handlers_base.html'
p1560
sg10
S'/Users/caveman/.virtualenvs/rssi/lib/python2.7/site-packages/django/core/handlers/base'
p1561
sg12
g13
(g14
g15
NtRp1562
(dp1563
g18
I1
sg19
I0
sg20
I155
sg21
I0
sg22
I0
sg23
I131
sg24
I0
sbssg25
S'(R\x9e\xf3\xcc\xab\xf7P}.\x08\xae!6H\xc9'
p1564
ssS'_Users_caveman__virtualenvs_rssi_lib_python2_7_site-packages_django_core_cache_backends_base'
p1565
(dp1566
g6
(dp1567
g8
S'_Users_caveman__virtualenvs_rssi_lib_python2_7_site-packages_django_core_cache_backends_base.html'
p1568
sg10
S'/Users/caveman/.virtualenvs/rssi/lib/python2.7/site-packages/django/core/cache/backends/base'
p1569
sg12
g13
(g14
g15
NtRp1570
(dp1571
g18
I1
sg19
I0
sg20
I99
sg21
I0
sg22
I0
sg23
I54
sg24
I0
sbssg25
S"Z\x10\x8f\xfa\xa3\x15G[\x9d\xb972'\xfe_\xbb"
p1572
ssS'_Users_caveman__virtualenvs_rssi_lib_python2_7_site-packages_django_utils_unittest___init__'
p1573
(dp1574
g6
(dp1575
g8
S'_Users_caveman__virtualenvs_rssi_lib_python2_7_site-packages_django_utils_unittest___init__.html'
p1576
sg10
S'/Users/caveman/.virtualenvs/rssi/lib/python2.7/site-packages/django/utils/unittest/__init__'
p1577
sg12
g13
(g14
g15
NtRp1578
(dp1579
g18
I1
sg19
I0
sg20
I23
sg21
I0
sg22
I0
sg23
I17
sg24
I0
sbssg25
S'\xccP\x9c\xf4\x9b(\x7f#1\xb9\xe3X7\xb4\xe6B'
p1580
ssS'_Users_caveman__virtualenvs_rssi_lib_python2_7_site-packages_pymongo_cursor'
p1581
(dp1582
g6
(dp1583
g118
S'_Users_caveman__virtualenvs_rssi_lib_python2_7_site-packages_pymongo_cursor.html'
p1584
sg120
S'/Users/caveman/.virtualenvs/rssi/lib/python2.7/site-packages/pymongo/cursor'
p1585
sg122
g13
(g14
g15
NtRp1586
(dp1587
g18
I1
sg19
I0
sg20
I427
sg21
I0
sg22
I0
sg23
I258
sg24
I0
sbssg25
S':\xed_WU8G\x00\xabN<I\xc2\x026R'
p1588
ssS'_Users_caveman__virtualenvs_rssi_lib_python2_7_site-packages_django_core_files_temp'
p1589
(dp1590
g6
(dp1591
g8
S'_Users_caveman__virtualenvs_rssi_lib_python2_7_site-packages_django_core_files_temp.html'
p1592
sg10
S'/Users/caveman/.virtualenvs/rssi/lib/python2.7/site-packages/django/core/files/temp'
p1593
sg12
g13
(g14
g15
NtRp1594
(dp1595
g18
I1
sg19
I0
sg20
I28
sg21
I0
sg22
I0
sg23
I21
sg24
I0
sbssg25
S'\x14%Z\x18\x8e\x18K\xa3Y\x1f\xa7\x988\xdc)X'
p1596
ssS'_Users_caveman__virtualenvs_rssi_lib_python2_7_site-packages_yaml_constructor'
p1597
(dp1598
g6
(dp1599
g8
S'_Users_caveman__virtualenvs_rssi_lib_python2_7_site-packages_yaml_constructor.html'
p1600
sg10
S'/Users/caveman/.virtualenvs/rssi/lib/python2.7/site-packages/yaml/constructor'
p1601
sg12
g13
(g14
g15
NtRp1602
(dp1603
g18
I1
sg19
I0
sg20
I441
sg21
I0
sg22
I0
sg23
I342
sg24
I0
sbssg25
S'4eW\xa2\xa1x\xd9\x1aB]\xef\xfb\x144({'
p1604
ssS'_Users_caveman__virtualenvs_rssi_lib_python2_7_site-packages_django_utils_encoding'
p1605
(dp1606
g6
(dp1607
g8
S'_Users_caveman__virtualenvs_rssi_lib_python2_7_site-packages_django_utils_encoding.html'
p1608
sg10
S'/Users/caveman/.virtualenvs/rssi/lib/python2.7/site-packages/django/utils/encoding'
p1609
sg12
g13
(g14
g15
NtRp1610
(dp1611
g18
I1
sg19
I0
sg20
I104
sg21
I0
sg22
I0
sg23
I41
sg24
I0
sbssg25
S'\xca\xd3j{\x85\xa7v\x92\x13N\x00\xbd\x06\x14\xb2\x13'
p1612
ssS'_Users_caveman__virtualenvs_rssi_lib_python2_7_site-packages_yaml_loader'
p1613
(dp1614
g6
(dp1615
g8
S'_Users_caveman__virtualenvs_rssi_lib_python2_7_site-packages_yaml_loader.html'
p1616
sg10
S'/Users/caveman/.virtualenvs/rssi/lib/python2.7/site-packages/yaml/loader'
p1617
sg12
g13
(g14
g15
NtRp1618
(dp1619
g18
I1
sg19
I0
sg20
I31
sg21
I0
sg22
I0
sg23
I18
sg24
I0
sbssg25
S'r\xd9\xb5}\x02D}\x051\xea\xde\x1b\xb2\xa6\xd0\x14'
p1620
ssS'_Users_caveman__virtualenvs_rssi_lib_python2_7_site-packages_django_db_models_expressions'
p1621
(dp1622
g6
(dp1623
g8
S'_Users_caveman__virtualenvs_rssi_lib_python2_7_site-packages_django_db_models_expressions.html'
p1624
sg10
S'/Users/caveman/.virtualenvs/rssi/lib/python2.7/site-packages/django/db/models/expressions'
p1625
sg12
g13
(g14
g15
NtRp1626
(dp1627
g18
I1
sg19
I0
sg20
I88
sg21
I0
sg22
I0
sg23
I47
sg24
I0
sbssg25
S'o\x0f\x167\x0fR:\xe4WS\xb0\x80\xa4Yfl'
p1628
ssS'_Users_caveman__virtualenvs_rssi_lib_python2_7_site-packages_django_template_smartif'
p1629
(dp1630
g6
(dp1631
g8
S'_Users_caveman__virtualenvs_rssi_lib_python2_7_site-packages_django_template_smartif.html'
p1632
sg10
S'/Users/caveman/.virtualenvs/rssi/lib/python2.7/site-packages/django/template/smartif'
p1633
sg12
g13
(g14
g15
NtRp1634
(dp1635
g18
I1
sg19
I0
sg20
I104
sg21
I0
sg22
I0
sg23
I61
sg24
I0
sbssg25
S'hV?\x8e}\x0be\xff@`D\xa5\x9et\x1f\x03'
p1636
ssS'_Users_caveman__virtualenvs_rssi_lib_python2_7_site-packages_yaml_reader'
p1637
(dp1638
g6
(dp1639
g8
S'_Users_caveman__virtualenvs_rssi_lib_python2_7_site-packages_yaml_reader.html'
p1640
sg10
S'/Users/caveman/.virtualenvs/rssi/lib/python2.7/site-packages/yaml/reader'
p1641
sg12
g13
(g14
g15
NtRp1642
(dp1643
g18
I1
sg19
I0
sg20
I120
sg21
I0
sg22
I0
sg23
I103
sg24
I0
sbssg25
S'\xf8^f\x1b\x8b\xdd\xd2r\xac\xdcB\xe9\x1c\xe2ln'
p1644
ssS'_Users_caveman__virtualenvs_rssi_lib_python2_7_site-packages_django_core_validators'
p1645
(dp1646
g6
(dp1647
g8
S'_Users_caveman__virtualenvs_rssi_lib_python2_7_site-packages_django_core_validators.html'
p1648
sg10
S'/Users/caveman/.virtualenvs/rssi/lib/python2.7/site-packages/django/core/validators'
p1649
sg12
g13
(g14
g15
NtRp1650
(dp1651
g18
I1
sg19
I0
sg20
I120
sg21
I0
sg22
I0
sg23
I51
sg24
I0
sbssg25
S'\xca\xb7=\xe8v\x8cR\xf1\x07\x95\x8f\\:"\xe7\xae'
p1652
ssS'_Users_caveman__virtualenvs_rssi_lib_python2_7_site-packages_django_utils_html'
p1653
(dp1654
g6
(dp1655
g8
S'_Users_caveman__virtualenvs_rssi_lib_python2_7_site-packages_django_utils_html.html'
p1656
sg10
S'/Users/caveman/.virtualenvs/rssi/lib/python2.7/site-packages/django/utils/html'
p1657
sg12
g13
(g14
g15
NtRp1658
(dp1659
g18
I1
sg19
I0
sg20
I150
sg21
I0
sg22
I0
sg23
I98
sg24
I0
sbssg25
S'\xe4\x14\xbb\xdf]\x9ax\x93[\x04\x96\xf2\x91<\x08\xa3'
p1660
ssS'_Users_caveman__virtualenvs_rssi_lib_python2_7_site-packages_django_db_models_manager'
p1661
(dp1662
g6
(dp1663
g8
S'_Users_caveman__virtualenvs_rssi_lib_python2_7_site-packages_django_db_models_manager.html'
p1664
sg10
S'/Users/caveman/.virtualenvs/rssi/lib/python2.7/site-packages/django/db/models/manager'
p1665
sg12
g13
(g14
g15
NtRp1666
(dp1667
g18
I1
sg19
I0
sg20
I157
sg21
I0
sg22
I0
sg23
I43
sg24
I0
sbssg25
S'@\x7f\xbf\xd6-J\xd9}\xb0\xd7\x92\xf6a\xdbI\xa9'
p1668
ssS'_Users_caveman__virtualenvs_rssi_lib_python2_7_site-packages_django_test__doctest'
p1669
(dp1670
g6
(dp1671
g8
S'_Users_caveman__virtualenvs_rssi_lib_python2_7_site-packages_django_test__doctest.html'
p1672
sg10
S'/Users/caveman/.virtualenvs/rssi/lib/python2.7/site-packages/django/test/_doctest'
p1673
sg12
g13
(g14
g15
NtRp1674
(dp1675
g18
I1
sg19
I0
sg20
I944
sg21
I0
sg22
I0
sg23
I707
sg24
I0
sbssg25
S'\x99\x8e~\xbf\xf2\x18\xf9j\xc8\xc0\xb1N\x9bt{\xa0'
p1676
ssS'restApp_models'
p1677
(dp1678
g6
(dp1679
g8
S'restApp_models.html'
p1680
sg10
S'restApp/models'
p1681
sg12
g13
(g14
g15
NtRp1682
(dp1683
g18
I1
sg19
I0
sg20
I0
sg21
I0
sg22
I0
sg23
I0
sg24
I0
sbssg25
S'\xb0\xc8pN\xaf>\xa0\xbaz\x144\xe0A9\xb8?'
p1684
ssS'_Users_caveman__virtualenvs_rssi_lib_python2_7_site-packages_django_contrib_sessions_backends_base'
p1685
(dp1686
g6
(dp1687
g8
S'_Users_caveman__virtualenvs_rssi_lib_python2_7_site-packages_django_contrib_sessions_backends_base.html'
p1688
sg10
S'/Users/caveman/.virtualenvs/rssi/lib/python2.7/site-packages/django/contrib/sessions/backends/base'
p1689
sg12
g13
(g14
g15
NtRp1690
(dp1691
g18
I1
sg19
I0
sg20
I176
sg21
I0
sg22
I0
sg23
I117
sg24
I0
sbssg25
S'>u\xdd\x93\xf2\x04\xbf\x13\xa8\xce\xf7\xe1\x08\xce.\xfe'
p1692
ssS'_Users_caveman__virtualenvs_rssi_lib_python2_7_site-packages_django_core_cache___init__'
p1693
(dp1694
g6
(dp1695
g8
S'_Users_caveman__virtualenvs_rssi_lib_python2_7_site-packages_django_core_cache___init__.html'
p1696
sg10
S'/Users/caveman/.virtualenvs/rssi/lib/python2.7/site-packages/django/core/cache/__init__'
p1697
sg12
g13
(g14
g15
NtRp1698
(dp1699
g18
I1
sg19
I0
sg20
I65
sg21
I0
sg22
I0
sg23
I32
sg24
I0
sbssg25
S'\xcfU\xb7\x08J\x17s}\xb4\x9b\x888\xb0\xcf\xc3\x83'
p1700
ssS'_Users_caveman__virtualenvs_rssi_lib_python2_7_site-packages_django_utils_timezone'
p1701
(dp1702
g6
(dp1703
g8
S'_Users_caveman__virtualenvs_rssi_lib_python2_7_site-packages_django_utils_timezone.html'
p1704
sg10
S'/Users/caveman/.virtualenvs/rssi/lib/python2.7/site-packages/django/utils/timezone'
p1705
sg12
g13
(g14
g15
NtRp1706
(dp1707
g18
I1
sg19
I0
sg20
I114
sg21
I0
sg22
I0
sg23
I70
sg24
I0
sbssg25
S'JlB\xf5\xa8\xff\xe4\x90P1\x8d\xe7\xe7\xdb\xc2\xa0'
p1708
ssS'_Users_caveman__virtualenvs_rssi_lib_python2_7_site-packages_yaml_dumper'
p1709
(dp1710
g6
(dp1711
g8
S'_Users_caveman__virtualenvs_rssi_lib_python2_7_site-packages_yaml_dumper.html'
p1712
sg10
S'/Users/caveman/.virtualenvs/rssi/lib/python2.7/site-packages/yaml/dumper'
p1713
sg12
g13
(g14
g15
NtRp1714
(dp1715
g18
I1
sg19
I0
sg20
I23
sg21
I0
sg22
I0
sg23
I12
sg24
I0
sbssg25
S'\x80\x90\xab\xb4\xcd\xd3\xad\xce\x1a8f8%\x9c\xa2\x82'
p1716
ssS'_Users_caveman__virtualenvs_rssi_lib_python2_7_site-packages_django_core_management_base'
p1717
(dp1718
g6
(dp1719
g8
S'_Users_caveman__virtualenvs_rssi_lib_python2_7_site-packages_django_core_management_base.html'
p1720
sg10
S'/Users/caveman/.virtualenvs/rssi/lib/python2.7/site-packages/django/core/management/base'
p1721
sg12
g13
(g14
g15
NtRp1722
(dp1723
g18
I1
sg19
I0
sg20
I139
sg21
I0
sg22
I0
sg23
I51
sg24
I0
sbssg25
S'\\\x1d\x9e\x8c\xd6K:\\\x18\xb4\x8d*k\xc0\x0cH'
p1724
ssS'_Users_caveman__virtualenvs_rssi_lib_python2_7_site-packages_django_utils_html_parser'
p1725
(dp1726
g6
(dp1727
g8
S'_Users_caveman__virtualenvs_rssi_lib_python2_7_site-packages_django_utils_html_parser.html'
p1728
sg10
S'/Users/caveman/.virtualenvs/rssi/lib/python2.7/site-packages/django/utils/html_parser'
p1729
sg12
g13
(g14
g15
NtRp1730
(dp1731
g18
I1
sg19
I0
sg20
I82
sg21
I0
sg22
I0
sg23
I68
sg24
I0
sbssg25
S"\x9c\x88w)\x01'\xac\xf5\xec\xe0Nl\x91\xefW\xda"
p1732
ssS'_Users_caveman__virtualenvs_rssi_lib_python2_7_site-packages_django_dispatch___init__'
p1733
(dp1734
g6
(dp1735
g8
S'_Users_caveman__virtualenvs_rssi_lib_python2_7_site-packages_django_dispatch___init__.html'
p1736
sg10
S'/Users/caveman/.virtualenvs/rssi/lib/python2.7/site-packages/django/dispatch/__init__'
p1737
sg12
g13
(g14
g15
NtRp1738
(dp1739
g18
I1
sg19
I0
sg20
I1
sg21
I0
sg22
I0
sg23
I0
sg24
I0
sbssg25
S'\xe9$\xa4\xf3k\xc7$G\xbe^\x9e5~A\x94\xd1'
p1740
ssS'_Users_caveman__virtualenvs_rssi_lib_python2_7_site-packages_django_http_cookie'
p1741
(dp1742
g6
(dp1743
g8
S'_Users_caveman__virtualenvs_rssi_lib_python2_7_site-packages_django_http_cookie.html'
p1744
sg10
S'/Users/caveman/.virtualenvs/rssi/lib/python2.7/site-packages/django/http/cookie'
p1745
sg12
g13
(g14
g15
NtRp1746
(dp1747
g18
I1
sg19
I0
sg20
I53
sg21
I0
sg22
I0
sg23
I34
sg24
I0
sbssg25
S'\xb1\xd0c\xcd\x86\xad\xef\xc0\xde8\x1fG*\xea\xa5Y'
p1748
ssS'_Users_caveman__virtualenvs_rssi_lib_python2_7_site-packages_django_template_context'
p1749
(dp1750
g6
(dp1751
g8
S'_Users_caveman__virtualenvs_rssi_lib_python2_7_site-packages_django_template_context.html'
p1752
sg10
S'/Users/caveman/.virtualenvs/rssi/lib/python2.7/site-packages/django/template/context'
p1753
sg12
g13
(g14
g15
NtRp1754
(dp1755
g18
I1
sg19
I0
sg20
I114
sg21
I0
sg22
I0
sg23
I81
sg24
I0
sbssg25
S'b\xd5\x12\xaf>\xf7\x0f\x87\xf2g\xbc\x9f\xd7\x962\xb1'
p1756
ssS'_Users_caveman__virtualenvs_rssi_lib_python2_7_site-packages_django_db_models_fields_related'
p1757
(dp1758
g6
(dp1759
g8
S'_Users_caveman__virtualenvs_rssi_lib_python2_7_site-packages_django_db_models_fields_related.html'
p1760
sg10
S'/Users/caveman/.virtualenvs/rssi/lib/python2.7/site-packages/django/db/models/fields/related'
p1761
sg12
g13
(g14
g15
NtRp1762
(dp1763
g18
I1
sg19
I0
sg20
I755
sg21
I0
sg22
I0
sg23
I472
sg24
I0
sbssg25
S'\x06=\x9b\xa2hR\x00z\xdbx\x81\xfd\xb8I\x0b\xcd'
p1764
ssS'_Users_caveman__virtualenvs_rssi_lib_python2_7_site-packages_django_utils__os'
p1765
(dp1766
g6
(dp1767
g8
S'_Users_caveman__virtualenvs_rssi_lib_python2_7_site-packages_django_utils__os.html'
p1768
sg10
S'/Users/caveman/.virtualenvs/rssi/lib/python2.7/site-packages/django/utils/_os'
p1769
sg12
g13
(g14
g15
NtRp1770
(dp1771
g18
I1
sg19
I0
sg20
I43
sg21
I0
sg22
I0
sg23
I22
sg24
I0
sbssg25
S'\x15#\xd1,`\xe9\xe4K\x96\xd6o\x8a\x85\x94\xa3\xcf'
p1772
ssS'_Users_caveman__virtualenvs_rssi_lib_python2_7_site-packages_mongoengine_context_managers'
p1773
(dp1774
g6
(dp1775
g8
S'_Users_caveman__virtualenvs_rssi_lib_python2_7_site-packages_mongoengine_context_managers.html'
p1776
sg10
S'/Users/caveman/.virtualenvs/rssi/lib/python2.7/site-packages/mongoengine/context_managers'
p1777
sg12
g13
(g14
g15
NtRp1778
(dp1779
g18
I1
sg19
I0
sg20
I92
sg21
I0
sg22
I0
sg23
I57
sg24
I0
sbssg25
S'1O\x8c\xe9$*\xa4\xa2\x83\xdfy\x1f\n\xd3\x1b*'
p1780
ssS'_Users_caveman__virtualenvs_rssi_lib_python2_7_site-packages_django_db_models_query'
p1781
(dp1782
g6
(dp1783
g8
S'_Users_caveman__virtualenvs_rssi_lib_python2_7_site-packages_django_db_models_query.html'
p1784
sg10
S'/Users/caveman/.virtualenvs/rssi/lib/python2.7/site-packages/django/db/models/query'
p1785
sg12
g13
(g14
g15
NtRp1786
(dp1787
g18
I1
sg19
I0
sg20
I973
sg21
I0
sg22
I0
sg23
I653
sg24
I0
sbssg25
S'\xaa\xca\xbdR\xca\xa6\xa83x\xdc\xf3\xd5\xeb\xd1\xaaX'
p1788
ssS'_Users_caveman__virtualenvs_rssi_lib_python2_7_site-packages_django_http_request'
p1789
(dp1790
g6
(dp1791
g8
S'_Users_caveman__virtualenvs_rssi_lib_python2_7_site-packages_django_http_request.html'
p1792
sg10
S'/Users/caveman/.virtualenvs/rssi/lib/python2.7/site-packages/django/http/request'
p1793
sg12
g13
(g14
g15
NtRp1794
(dp1795
g18
I1
sg19
I0
sg20
I280
sg21
I0
sg22
I0
sg23
I204
sg24
I0
sbssg25
S'\xdf\x85\xd5)"\xaf\n\xb6|=:\xc9\x9cT\xd3\xef'
p1796
ssS'_Users_caveman__virtualenvs_rssi_lib_python2_7_site-packages_django_utils_dateparse'
p1797
(dp1798
g6
(dp1799
g8
S'_Users_caveman__virtualenvs_rssi_lib_python2_7_site-packages_django_utils_dateparse.html'
p1800
sg10
S'/Users/caveman/.virtualenvs/rssi/lib/python2.7/site-packages/django/utils/dateparse'
p1801
sg12
g13
(g14
g15
NtRp1802
(dp1803
g18
I1
sg19
I0
sg20
I38
sg21
I0
sg22
I0
sg23
I27
sg24
I0
sbssg25
S'\xe8\n\xd12\x94@\xf2\x18\xb8\x94;-z\x10\xfbq'
p1804
ssS'restApp_settings'
p1805
(dp1806
g6
(dp1807
g8
S'restApp_settings.html'
p1808
sg10
S'restApp/settings'
p1809
sg12
g13
(g14
g15
NtRp1810
(dp1811
g18
I1
sg19
I0
sg20
I34
sg21
I0
sg22
I0
sg23
I0
sg24
I0
sbssg25
S';\xf4\x86Z\xc7v\xd8-\xbe\xf1g\xae\t\x91\xba2'
p1812
ssS'_Users_caveman__virtualenvs_rssi_lib_python2_7_site-packages_django_core_files_locks'
p1813
(dp1814
g6
(dp1815
g8
S'_Users_caveman__virtualenvs_rssi_lib_python2_7_site-packages_django_core_files_locks.html'
p1816
sg10
S'/Users/caveman/.virtualenvs/rssi/lib/python2.7/site-packages/django/core/files/locks'
p1817
sg12
g13
(g14
g15
NtRp1818
(dp1819
g18
I1
sg19
I0
sg20
I40
sg21
I0
sg22
I0
sg23
I23
sg24
I0
sbssg25
S'\xce}lA\x9d\xae\x8f[oRM\xb4\x9aI[\xf4'
p1820
ssS'_Users_caveman__virtualenvs_rssi_lib_python2_7_site-packages_django_views_debug'
p1821
(dp1822
g6
(dp1823
g8
S'_Users_caveman__virtualenvs_rssi_lib_python2_7_site-packages_django_views_debug.html'
p1824
sg10
S'/Users/caveman/.virtualenvs/rssi/lib/python2.7/site-packages/django/views/debug'
p1825
sg12
g13
(g14
g15
NtRp1826
(dp1827
g18
I1
sg19
I0
sg20
I276
sg21
I0
sg22
I0
sg23
I230
sg24
I0
sbssg25
S'\\\xab\xf7\x80PC\xcb5\x87\t\xb3f\xa1\xd2\xe1('
p1828
ssS'_Users_caveman__virtualenvs_rssi_lib_python2_7_site-packages_django_db_models_deletion'
p1829
(dp1830
g6
(dp1831
g8
S'_Users_caveman__virtualenvs_rssi_lib_python2_7_site-packages_django_db_models_deletion.html'
p1832
sg10
S'/Users/caveman/.virtualenvs/rssi/lib/python2.7/site-packages/django/db/models/deletion'
p1833
sg12
g13
(g14
g15
NtRp1834
(dp1835
g18
I1
sg19
I0
sg20
I173
sg21
I0
sg22
I0
sg23
I142
sg24
I0
sbssg25
S'\x91\x11\xc1<"\xc6\xadr@\x82\xd9\x9eU\xd1%\xba'
p1836
ssS'_Users_caveman__virtualenvs_rssi_lib_python2_7_site-packages_django_utils_synch'
p1837
(dp1838
g6
(dp1839
g8
S'_Users_caveman__virtualenvs_rssi_lib_python2_7_site-packages_django_utils_synch.html'
p1840
sg10
S'/Users/caveman/.virtualenvs/rssi/lib/python2.7/site-packages/django/utils/synch'
p1841
sg12
g13
(g14
g15
NtRp1842
(dp1843
g18
I1
sg19
I0
sg20
I59
sg21
I0
sg22
I0
sg23
I41
sg24
I0
sbssg25
S'\xe4\xa3PBK-)\xfe}"\xa7\xb5\x01\x8cz\x8d'
p1844
ssS'_Users_caveman__virtualenvs_rssi_lib_python2_7_site-packages_django_db_backends_signals'
p1845
(dp1846
g6
(dp1847
g8
S'_Users_caveman__virtualenvs_rssi_lib_python2_7_site-packages_django_db_backends_signals.html'
p1848
sg10
S'/Users/caveman/.virtualenvs/rssi/lib/python2.7/site-packages/django/db/backends/signals'
p1849
sg12
g13
(g14
g15
NtRp1850
(dp1851
g18
I1
sg19
I0
sg20
I2
sg21
I0
sg22
I0
sg23
I0
sg24
I0
sbssg25
S'\xac\xe8\xc0\xe9\x8a\xd9d\xcc\x03\xc1\x89\xd4\xde\xa8x<'
p1852
ssS'_Users_caveman__virtualenvs_rssi_lib_python2_7_site-packages_mongoengine_base_metaclasses'
p1853
(dp1854
g6
(dp1855
g118
S'_Users_caveman__virtualenvs_rssi_lib_python2_7_site-packages_mongoengine_base_metaclasses.html'
p1856
sg120
S'/Users/caveman/.virtualenvs/rssi/lib/python2.7/site-packages/mongoengine/base/metaclasses'
p1857
sg122
g13
(g14
g15
NtRp1858
(dp1859
g18
I1
sg19
I0
sg20
I217
sg21
I0
sg22
I0
sg23
I55
sg24
I0
sbssg25
S'\xe5\xfc\xd4\xa3\xc8\x96\x0e\xd0\x7f\x81\x80\xea\twnX'
p1860
ssS'_Users_caveman__virtualenvs_rssi_lib_python2_7_site-packages_django_core_servers___init__'
p1861
(dp1862
g6
(dp1863
g8
S'_Users_caveman__virtualenvs_rssi_lib_python2_7_site-packages_django_core_servers___init__.html'
p1864
sg10
S'/Users/caveman/.virtualenvs/rssi/lib/python2.7/site-packages/django/core/servers/__init__'
p1865
sg12
g13
(g14
g15
NtRp1866
(dp1867
g18
I1
sg19
I0
sg20
I0
sg21
I0
sg22
I0
sg23
I0
sg24
I0
sbssg25
S'\xb0\xc8pN\xaf>\xa0\xbaz\x144\xe0A9\xb8?'
p1868
ssS'_Users_caveman__virtualenvs_rssi_lib_python2_7_site-packages_django_test_signals'
p1869
(dp1870
g6
(dp1871
g8
S'_Users_caveman__virtualenvs_rssi_lib_python2_7_site-packages_django_test_signals.html'
p1872
sg10
S'/Users/caveman/.virtualenvs/rssi/lib/python2.7/site-packages/django/test/signals'
p1873
sg12
g13
(g14
g15
NtRp1874
(dp1875
g18
I1
sg19
I0
sg20
I50
sg21
I0
sg22
I0
sg23
I35
sg24
I0
sbssg25
S'\xd2\xaet\x89\x93\xe1\xca\xecB\x94{\xfd$Boz'
p1876
ssS'_Users_caveman__virtualenvs_rssi_lib_python2_7_site-packages_pymongo_replica_set_connection'
p1877
(dp1878
g6
(dp1879
g8
S'_Users_caveman__virtualenvs_rssi_lib_python2_7_site-packages_pymongo_replica_set_connection.html'
p1880
sg10
S'/Users/caveman/.virtualenvs/rssi/lib/python2.7/site-packages/pymongo/replica_set_connection'
p1881
sg12
g13
(g14
g15
NtRp1882
(dp1883
g18
I1
sg19
I0
sg20
I15
sg21
I0
sg22
I0
sg23
I9
sg24
I0
sbssg25
S'\xf7\xce\n\x916\x7f\xd2\xc1\xc5\x00\xe9\xe5\x140\xb92'
p1884
ssS'_Users_caveman__virtualenvs_rssi_lib_python2_7_site-packages_django_db_models_sql_expressions'
p1885
(dp1886
g6
(dp1887
g8
S'_Users_caveman__virtualenvs_rssi_lib_python2_7_site-packages_django_db_models_sql_expressions.html'
p1888
sg10
S'/Users/caveman/.virtualenvs/rssi/lib/python2.7/site-packages/django/db/models/sql/expressions'
p1889
sg12
g13
(g14
g15
NtRp1890
(dp1891
g18
I1
sg19
I0
sg20
I74
sg21
I0
sg22
I0
sg23
I61
sg24
I0
sbssg25
S'\x05\xdf\xd8\x9e\x0e\xff\x10e\xad`Q\xd62\xd10\xd5'
p1892
ssS'_Users_caveman__virtualenvs_rssi_lib_python2_7_site-packages_django_core_serializers_base'
p1893
(dp1894
g6
(dp1895
g8
S'_Users_caveman__virtualenvs_rssi_lib_python2_7_site-packages_django_core_serializers_base.html'
p1896
sg10
S'/Users/caveman/.virtualenvs/rssi/lib/python2.7/site-packages/django/core/serializers/base'
p1897
sg12
g13
(g14
g15
NtRp1898
(dp1899
g18
I1
sg19
I0
sg20
I77
sg21
I0
sg22
I0
sg23
I49
sg24
I0
sbssg25
S'\x9f\xf8\xb9\x97/\x18\xcd\xb5\tJ\x96$\xbb\xe8U\xd5'
p1900
ssS'_Users_caveman__virtualenvs_rssi_lib_python2_7_site-packages_pymongo_uri_parser'
p1901
(dp1902
g6
(dp1903
g8
S'_Users_caveman__virtualenvs_rssi_lib_python2_7_site-packages_pymongo_uri_parser.html'
p1904
sg10
S'/Users/caveman/.virtualenvs/rssi/lib/python2.7/site-packages/pymongo/uri_parser'
p1905
sg12
g13
(g14
g15
NtRp1906
(dp1907
g18
I1
sg19
I0
sg20
I123
sg21
I0
sg22
I0
sg23
I93
sg24
I0
sbssg25
S'\x90`f\xe2!\xb7\xab\xdd\xfaO:\xfd\x82\xbf\x19\xfd'
p1908
ssS'_Users_caveman__virtualenvs_rssi_lib_python2_7_site-packages_yaml_scanner'
p1909
(dp1910
g6
(dp1911
g8
S'_Users_caveman__virtualenvs_rssi_lib_python2_7_site-packages_yaml_scanner.html'
p1912
sg10
S'/Users/caveman/.virtualenvs/rssi/lib/python2.7/site-packages/yaml/scanner'
p1913
sg12
g13
(g14
g15
NtRp1914
(dp1915
g18
I1
sg19
I0
sg20
I760
sg21
I0
sg22
I0
sg23
I679
sg24
I0
sbssg25
S'\x00\x8b\xd0\x95\xc7\xed \xe0\x04Mz\xbd\x7f\x91\x15\xcf'
p1916
ssS'_Users_caveman__virtualenvs_rssi_lib_python2_7_site-packages_django_contrib_staticfiles_utils'
p1917
(dp1918
g6
(dp1919
g8
S'_Users_caveman__virtualenvs_rssi_lib_python2_7_site-packages_django_contrib_staticfiles_utils.html'
p1920
sg10
S'/Users/caveman/.virtualenvs/rssi/lib/python2.7/site-packages/django/contrib/staticfiles/utils'
p1921
sg12
g13
(g14
g15
NtRp1922
(dp1923
g18
I1
sg19
I0
sg20
I37
sg21
I0
sg22
I0
sg23
I30
sg24
I0
sbssg25
S'Q\x99\xe3\x98\xf4\xbc\tTg\xbc\xed\xbd\\\xf9Q\xdd'
p1924
ssS'_Users_caveman__virtualenvs_rssi_lib_python2_7_site-packages_mongoengine_django___init__'
p1925
(dp1926
g6
(dp1927
g8
S'_Users_caveman__virtualenvs_rssi_lib_python2_7_site-packages_mongoengine_django___init__.html'
p1928
sg10
S'/Users/caveman/.virtualenvs/rssi/lib/python2.7/site-packages/mongoengine/django/__init__'
p1929
sg12
g13
(g14
g15
NtRp1930
(dp1931
g18
I1
sg19
I0
sg20
I0
sg21
I0
sg22
I0
sg23
I0
sg24
I0
sbssg25
S'\xb0\xc8pN\xaf>\xa0\xbaz\x144\xe0A9\xb8?'
p1932
ssS'_Users_caveman__virtualenvs_rssi_lib_python2_7_site-packages_mongoengine_python_support'
p1933
(dp1934
g6
(dp1935
g8
S'_Users_caveman__virtualenvs_rssi_lib_python2_7_site-packages_mongoengine_python_support.html'
p1936
sg10
S'/Users/caveman/.virtualenvs/rssi/lib/python2.7/site-packages/mongoengine/python_support'
p1937
sg12
g13
(g14
g15
NtRp1938
(dp1939
g18
I1
sg19
I0
sg20
I43
sg21
I0
sg22
I0
sg23
I28
sg24
I0
sbssg25
S'a\x0ce=\x9cr8\x95\x91U\x9b(^\xb5\xfe\x8c'
p1940
ssS'_Users_caveman__virtualenvs_rssi_lib_python2_7_site-packages_django_core_files_uploadhandler'
p1941
(dp1942
g6
(dp1943
g8
S'_Users_caveman__virtualenvs_rssi_lib_python2_7_site-packages_django_core_files_uploadhandler.html'
p1944
sg10
S'/Users/caveman/.virtualenvs/rssi/lib/python2.7/site-packages/django/core/files/uploadhandler'
p1945
sg12
g13
(g14
g15
NtRp1946
(dp1947
g18
I1
sg19
I0
sg20
I89
sg21
I0
sg22
I0
sg23
I52
sg24
I0
sbssg25
S'\x17o\xc8\xfb\xe9\x8c\xc9:\x13Q0\x86\x02\x91m\xb4'
p1948
ssS'_Users_caveman__virtualenvs_rssi_lib_python2_7_site-packages_django_core_serializers_xml_serializer'
p1949
(dp1950
g6
(dp1951
g8
S'_Users_caveman__virtualenvs_rssi_lib_python2_7_site-packages_django_core_serializers_xml_serializer.html'
p1952
sg10
S'/Users/caveman/.virtualenvs/rssi/lib/python2.7/site-packages/django/core/serializers/xml_serializer'
p1953
sg12
g13
(g14
g15
NtRp1954
(dp1955
g18
I1
sg19
I0
sg20
I209
sg21
I0
sg22
I0
sg23
I163
sg24
I0
sbssg25
S'D\x84+U\xaa{aF\x82\x85j,\x93x\xce\xa8'
p1956
ssS'_Users_caveman__virtualenvs_rssi_lib_python2_7_site-packages_django_template_loader_tags'
p1957
(dp1958
g6
(dp1959
g8
S'_Users_caveman__virtualenvs_rssi_lib_python2_7_site-packages_django_template_loader_tags.html'
p1960
sg10
S'/Users/caveman/.virtualenvs/rssi/lib/python2.7/site-packages/django/template/loader_tags'
p1961
sg12
g13
(g14
g15
NtRp1962
(dp1963
g18
I1
sg19
I0
sg20
I178
sg21
I0
sg22
I0
sg23
I140
sg24
I0
sbssg25
S'\xc0\xc1V\x98\x98\xde\xa2\xe1\t\x9e\xe0o\xc7\x94\xd0\x0c'
p1964
ssS'_Users_caveman__virtualenvs_rssi_lib_python2_7_site-packages_django_core_signals'
p1965
(dp1966
g6
(dp1967
g8
S'_Users_caveman__virtualenvs_rssi_lib_python2_7_site-packages_django_core_signals.html'
p1968
sg10
S'/Users/caveman/.virtualenvs/rssi/lib/python2.7/site-packages/django/core/signals'
p1969
sg12
g13
(g14
g15
NtRp1970
(dp1971
g18
I1
sg19
I0
sg20
I4
sg21
I0
sg22
I0
sg23
I0
sg24
I0
sbssg25
S'\xa8\x92\x82\x13=\x82/\x06\xba\xb2\xa6\xad\xc4o\x81\xc2'
p1972
ssS'_Users_caveman__virtualenvs_rssi_lib_python2_7_site-packages_mongoengine_queryset_transform'
p1973
(dp1974
g6
(dp1975
g118
S'_Users_caveman__virtualenvs_rssi_lib_python2_7_site-packages_mongoengine_queryset_transform.html'
p1976
sg120
S'/Users/caveman/.virtualenvs/rssi/lib/python2.7/site-packages/mongoengine/queryset/transform'
p1977
sg122
g13
(g14
g15
NtRp1978
(dp1979
g18
I1
sg19
I0
sg20
I225
sg21
I0
sg22
I0
sg23
I173
sg24
I0
sbssg25
S'\xab\xbc\xc3Vj\xdbqO\x95:\x08\xdf\x8dk\xd0\xf2'
p1980
ssS'_Users_caveman__virtualenvs_rssi_lib_python2_7_site-packages_pymongo_thread_util'
p1981
(dp1982
g6
(dp1983
g8
S'_Users_caveman__virtualenvs_rssi_lib_python2_7_site-packages_pymongo_thread_util.html'
p1984
sg10
S'/Users/caveman/.virtualenvs/rssi/lib/python2.7/site-packages/pymongo/thread_util'
p1985
sg12
g13
(g14
g15
NtRp1986
(dp1987
g18
I1
sg19
I0
sg20
I182
sg21
I0
sg22
I0
sg23
I76
sg24
I0
sbssg25
S'\xb5\x8f\xe8.QY\xfb\xedO\xc8\x8dU\x1d\xd8\x1a\xd3'
p1988
ssS'_Users_caveman__virtualenvs_rssi_lib_python2_7_site-packages_pymongo_collection'
p1989
(dp1990
g6
(dp1991
g118
S'_Users_caveman__virtualenvs_rssi_lib_python2_7_site-packages_pymongo_collection.html'
p1992
sg120
S'/Users/caveman/.virtualenvs/rssi/lib/python2.7/site-packages/pymongo/collection'
p1993
sg122
g13
(g14
g15
NtRp1994
(dp1995
g18
I1
sg19
I0
sg20
I282
sg21
I0
sg22
I0
sg23
I169
sg24
I0
sbssg25
S'y]\xfa\xe2;\x02\n\xd0\x99j\xa59\x03\x8a\x8a\xca'
p1996
ssS'_Users_caveman__virtualenvs_rssi_lib_python2_7_site-packages_django_db_models_constants'
p1997
(dp1998
g6
(dp1999
g8
S'_Users_caveman__virtualenvs_rssi_lib_python2_7_site-packages_django_db_models_constants.html'
p2000
sg10
S'/Users/caveman/.virtualenvs/rssi/lib/python2.7/site-packages/django/db/models/constants'
p2001
sg12
g13
(g14
g15
NtRp2002
(dp2003
g18
I1
sg19
I0
sg20
I1
sg21
I0
sg22
I0
sg23
I0
sg24
I0
sbssg25
S'\xef\x06{\x16\xaf\xdf\xe1\xdd\xad\xcc\xcb\xa8A\x84\xe7\xab'
p2004
ssS'_Users_caveman__virtualenvs_rssi_lib_python2_7_site-packages_django_db_backends_sqlite3_base'
p2005
(dp2006
g6
(dp2007
g8
S'_Users_caveman__virtualenvs_rssi_lib_python2_7_site-packages_django_db_backends_sqlite3_base.html'
p2008
sg10
S'/Users/caveman/.virtualenvs/rssi/lib/python2.7/site-packages/django/db/backends/sqlite3/base'
p2009
sg12
g13
(g14
g15
NtRp2010
(dp2011
g18
I1
sg19
I0
sg20
I233
sg21
I0
sg22
I0
sg23
I110
sg24
I0
sbssg25
S'L\x8c\xd3\xabv3rr\xa8\x13{\xc6\xd6Z\xd5\xbf'
p2012
ssS'_Users_caveman__virtualenvs_rssi_lib_python2_7_site-packages_django_utils_http'
p2013
(dp2014
g6
(dp2015
g8
S'_Users_caveman__virtualenvs_rssi_lib_python2_7_site-packages_django_utils_http.html'
p2016
sg10
S'/Users/caveman/.virtualenvs/rssi/lib/python2.7/site-packages/django/utils/http'
p2017
sg12
g13
(g14
g15
NtRp2018
(dp2019
g18
I1
sg19
I0
sg20
I122
sg21
I0
sg22
I0
sg23
I76
sg24
I0
sbssg25
S'%Wn\xd7\xf9\xc1\xa6Vg\x03\xb1~\xb2\xee>\xc3'
p2020
ssS'_Users_caveman__virtualenvs_rssi_lib_python2_7_site-packages_django_utils_dates'
p2021
(dp2022
g6
(dp2023
g8
S'_Users_caveman__virtualenvs_rssi_lib_python2_7_site-packages_django_utils_dates.html'
p2024
sg10
S'/Users/caveman/.virtualenvs/rssi/lib/python2.7/site-packages/django/utils/dates'
p2025
sg12
g13
(g14
g15
NtRp2026
(dp2027
g18
I1
sg19
I0
sg20
I9
sg21
I0
sg22
I0
sg23
I0
sg24
I0
sbssg25
S'\xed\xe1n\x81\x12\xc1\xc6\x8b\xd8\x98O4:mTA'
p2028
ssS'_Users_caveman__virtualenvs_rssi_lib_python2_7_site-packages_django_test_html'
p2029
(dp2030
g6
(dp2031
g8
S'_Users_caveman__virtualenvs_rssi_lib_python2_7_site-packages_django_test_html.html'
p2032
sg10
S'/Users/caveman/.virtualenvs/rssi/lib/python2.7/site-packages/django/test/html'
p2033
sg12
g13
(g14
g15
NtRp2034
(dp2035
g18
I1
sg19
I0
sg20
I167
sg21
I0
sg22
I0
sg23
I128
sg24
I0
sbssg25
S'\xb3\x03\x1f\xb6\xaf\xaf\xe2p\xe6\x89\x19\x83\xe6{\xa4^'
p2036
ssS'_Users_caveman__virtualenvs_rssi_lib_python2_7_site-packages_django_contrib_contenttypes_models'
p2037
(dp2038
g6
(dp2039
g8
S'_Users_caveman__virtualenvs_rssi_lib_python2_7_site-packages_django_contrib_contenttypes_models.html'
p2040
sg10
S'/Users/caveman/.virtualenvs/rssi/lib/python2.7/site-packages/django/contrib/contenttypes/models'
p2041
sg12
g13
(g14
g15
NtRp2042
(dp2043
g18
I1
sg19
I0
sg20
I98
sg21
I0
sg22
I0
sg23
I48
sg24
I0
sbssg25
S'\x03\x16\x93\xb8\x04M$\xc4D$\x9a\x14q\xf2I3'
p2044
ssS'_Users_caveman__virtualenvs_rssi_lib_python2_7_site-packages_pymongo_database'
p2045
(dp2046
g6
(dp2047
g118
S'_Users_caveman__virtualenvs_rssi_lib_python2_7_site-packages_pymongo_database.html'
p2048
sg120
S'/Users/caveman/.virtualenvs/rssi/lib/python2.7/site-packages/pymongo/database'
p2049
sg122
g13
(g14
g15
NtRp2050
(dp2051
g18
I1
sg19
I0
sg20
I254
sg21
I0
sg22
I0
sg23
I164
sg24
I0
sbssg25
S'\xb6\x1ap\xa1\xa2\x11\xa1\xb2:\n\xdc\xbf\x17\xd8\xc7\xf8'
p2052
ssS'_Users_caveman__virtualenvs_rssi_lib_python2_7_site-packages_django_db_models_sql_query'
p2053
(dp2054
g6
(dp2055
g8
S'_Users_caveman__virtualenvs_rssi_lib_python2_7_site-packages_django_db_models_sql_query.html'
p2056
sg10
S'/Users/caveman/.virtualenvs/rssi/lib/python2.7/site-packages/django/db/models/sql/query'
p2057
sg12
g13
(g14
g15
NtRp2058
(dp2059
g18
I1
sg19
I0
sg20
I1050
sg21
I0
sg22
I0
sg23
I581
sg24
I0
sbssg25
S'w\xaed\xbd\x11\x91?X\xb8j1\xb6-\xeb-\xdb'
p2060
ssS'_Users_caveman__virtualenvs_rssi_lib_python2_7_site-packages_django_utils_timesince'
p2061
(dp2062
g6
(dp2063
g8
S'_Users_caveman__virtualenvs_rssi_lib_python2_7_site-packages_django_utils_timesince.html'
p2064
sg10
S'/Users/caveman/.virtualenvs/rssi/lib/python2.7/site-packages/django/utils/timesince'
p2065
sg12
g13
(g14
g15
NtRp2066
(dp2067
g18
I1
sg19
I0
sg20
I29
sg21
I0
sg22
I0
sg23
I23
sg24
I0
sbssg25
S'$\x8cBu\x0b\xc1\xdfN\x15\xde\xf7F\x8f\n\xe9\xbf'
p2068
ssS'_Users_caveman__virtualenvs_rssi_lib_python2_7_site-packages_pymongo_cursor_manager'
p2069
(dp2070
g6
(dp2071
g8
S'_Users_caveman__virtualenvs_rssi_lib_python2_7_site-packages_pymongo_cursor_manager.html'
p2072
sg10
S'/Users/caveman/.virtualenvs/rssi/lib/python2.7/site-packages/pymongo/cursor_manager'
p2073
sg12
g13
(g14
g15
NtRp2074
(dp2075
g18
I1
sg19
I0
sg20
I24
sg21
I0
sg22
I0
sg23
I14
sg24
I0
sbssg25
S'\xd7K\x02\xd7\xed1c\n\xc7\xe5\x82 R\xbd\xc8$'
p2076
ssS'_Users_caveman__virtualenvs_rssi_lib_python2_7_site-packages_yaml_composer'
p2077
(dp2078
g6
(dp2079
g8
S'_Users_caveman__virtualenvs_rssi_lib_python2_7_site-packages_yaml_composer.html'
p2080
sg10
S'/Users/caveman/.virtualenvs/rssi/lib/python2.7/site-packages/yaml/composer'
p2081
sg12
g13
(g14
g15
NtRp2082
(dp2083
g18
I1
sg19
I0
sg20
I92
sg21
I0
sg22
I0
sg23
I76
sg24
I0
sbssg25
S'h\r\xfbm\x18\xc0\x17\\\xcb\x9ce\xc0\x98&\x18\xc8'
p2084
ssS'_Users_caveman__virtualenvs_rssi_lib_python2_7_site-packages_django_db_models_sql_datastructures'
p2085
(dp2086
g6
(dp2087
g8
S'_Users_caveman__virtualenvs_rssi_lib_python2_7_site-packages_django_db_models_sql_datastructures.html'
p2088
sg10
S'/Users/caveman/.virtualenvs/rssi/lib/python2.7/site-packages/django/db/models/sql/datastructures'
p2089
sg12
g13
(g14
g15
NtRp2090
(dp2091
g18
I1
sg19
I0
sg20
I23
sg21
I0
sg22
I0
sg23
I11
sg24
I0
sbssg25
S'\x07\xe3\x96|t;\xd3\xca\x8a\x1f]\x94d\xcc\r\xa8'
p2092
ssS'_Users_caveman__virtualenvs_rssi_lib_python2_7_site-packages_mongoengine_document'
p2093
(dp2094
g6
(dp2095
g118
S'_Users_caveman__virtualenvs_rssi_lib_python2_7_site-packages_mongoengine_document.html'
p2096
sg120
S'/Users/caveman/.virtualenvs/rssi/lib/python2.7/site-packages/mongoengine/document'
p2097
sg122
g13
(g14
g15
NtRp2098
(dp2099
g18
I1
sg19
I0
sg20
I290
sg21
I0
sg22
I0
sg23
I171
sg24
I0
sbssg25
S'\xa6\xe1\xeb\x0c\x96+Jo\xc6ZE\xf4\x80\xc1\xc8\x97'
p2100
ssS'_Users_caveman__virtualenvs_rssi_lib_python2_7_site-packages_django_utils_termcolors'
p2101
(dp2102
g6
(dp2103
g8
S'_Users_caveman__virtualenvs_rssi_lib_python2_7_site-packages_django_utils_termcolors.html'
p2104
sg10
S'/Users/caveman/.virtualenvs/rssi/lib/python2.7/site-packages/django/utils/termcolors'
p2105
sg12
g13
(g14
g15
NtRp2106
(dp2107
g18
I1
sg19
I0
sg20
I57
sg21
I0
sg22
I0
sg23
I40
sg24
I0
sbssg25
S'\x18\xc6\x8a\x88E\xa6\x84\xafY\xd5$\x88@\x9c\xf2\xaf'
p2108
ssS'restApp_documents'
p2109
(dp2110
S'index'
p2111
(dp2112
g118
S'restApp_documents.html'
p2113
sg120
S'restApp/documents'
p2114
sg122
g13
(g14
g15
NtRp2115
(dp2116
g18
I1
sg19
I0
sg20
I11
sg21
I0
sg22
I0
sg23
I0
sg24
I0
sbssS'hash'
p2117
S'r\x1c\xbe\x06\xa5\xc2Onz\xe2`IS\xb6\xd8\x85'
p2118
ssS'_Users_caveman__virtualenvs_rssi_lib_python2_7_site-packages_mongoengine_errors'
p2119
(dp2120
g6
(dp2121
g8
S'_Users_caveman__virtualenvs_rssi_lib_python2_7_site-packages_mongoengine_errors.html'
p2122
sg10
S'/Users/caveman/.virtualenvs/rssi/lib/python2.7/site-packages/mongoengine/errors'
p2123
sg12
g13
(g14
g15
NtRp2124
(dp2125
g18
I1
sg19
I0
sg20
I71
sg21
I0
sg22
I0
sg23
I39
sg24
I0
sbssg25
S'\xf0&\xcaj\xc0\xfb\xfa\xcco{\x8f\x1f\x82\xa7]\xbb'
p2126
ssS'restApp___init__'
p2127
(dp2128
g6
(dp2129
g8
S'restApp___init__.html'
p2130
sg10
S'restApp/__init__'
p2131
sg12
g13
(g14
g15
NtRp2132
(dp2133
g18
I1
sg19
I0
sg20
I0
sg21
I0
sg22
I0
sg23
I0
sg24
I0
sbssg25
S'\xb0\xc8pN\xaf>\xa0\xbaz\x144\xe0A9\xb8?'
p2134
ssS'_Users_caveman__virtualenvs_rssi_lib_python2_7_site-packages_yaml_tokens'
p2135
(dp2136
g6
(dp2137
g8
S'_Users_caveman__virtualenvs_rssi_lib_python2_7_site-packages_yaml_tokens.html'
p2138
sg10
S'/Users/caveman/.virtualenvs/rssi/lib/python2.7/site-packages/yaml/tokens'
p2139
sg12
g13
(g14
g15
NtRp2140
(dp2141
g18
I1
sg19
I0
sg20
I76
sg21
I0
sg22
I0
sg23
I27
sg24
I0
sbssg25
S'[\x88+\xdcs\x8e\xa5\xff\xb0O\xb4\x84\x08\x93\xa2O'
p2142
ssS'_Users_caveman__virtualenvs_rssi_lib_python2_7_site-packages_django_db_backends_sqlite3_creation'
p2143
(dp2144
g6
(dp2145
g8
S'_Users_caveman__virtualenvs_rssi_lib_python2_7_site-packages_django_db_backends_sqlite3_creation.html'
p2146
sg10
S'/Users/caveman/.virtualenvs/rssi/lib/python2.7/site-packages/django/db/backends/sqlite3/creation'
p2147
sg12
g13
(g14
g15
NtRp2148
(dp2149
g18
I1
sg19
I0
sg20
I44
sg21
I0
sg22
I0
sg23
I17
sg24
I0
sbssg25
S'2\x88\xb6dx-\x8c"\xb8C\xd8=|x\xbf\x1f'
p2150
ssS'_Users_caveman__virtualenvs_rssi_lib_python2_7_site-packages_django_dispatch_dispatcher'
p2151
(dp2152
g6
(dp2153
g8
S'_Users_caveman__virtualenvs_rssi_lib_python2_7_site-packages_django_dispatch_dispatcher.html'
p2154
sg10
S'/Users/caveman/.virtualenvs/rssi/lib/python2.7/site-packages/django/dispatch/dispatcher'
p2155
sg12
g13
(g14
g15
NtRp2156
(dp2157
g18
I1
sg19
I0
sg20
I101
sg21
I0
sg22
I0
sg23
I40
sg24
I0
sbssg25
S'5\x99\x0f2\xd8\xa7g\xa9\xd7\xfc\xbe\x1e\xb2\xcd\x96\xf2'
p2158
ssS'_Users_caveman__virtualenvs_rssi_lib_python2_7_site-packages_django_conf___init__'
p2159
(dp2160
g6
(dp2161
g8
S'_Users_caveman__virtualenvs_rssi_lib_python2_7_site-packages_django_conf___init__.html'
p2162
sg10
S'/Users/caveman/.virtualenvs/rssi/lib/python2.7/site-packages/django/conf/__init__'
p2163
sg12
g13
(g14
g15
NtRp2164
(dp2165
g18
I1
sg19
I0
sg20
I112
sg21
I0
sg22
I0
sg23
I39
sg24
I0
sbssg25
S'\xabm\xc4\x97\x01g\xea\xe7\xee\xcc\xbd\xff\x8bD\xb8\xa3'
p2166
ssS'_Users_caveman__virtualenvs_rssi_lib_python2_7_site-packages_django_db_models_sql_constants'
p2167
(dp2168
g6
(dp2169
g8
S'_Users_caveman__virtualenvs_rssi_lib_python2_7_site-packages_django_db_models_sql_constants.html'
p2170
sg10
S'/Users/caveman/.virtualenvs/rssi/lib/python2.7/site-packages/django/db/models/sql/constants'
p2171
sg12
g13
(g14
g15
NtRp2172
(dp2173
g18
I1
sg19
I0
sg20
I9
sg21
I0
sg22
I0
sg23
I0
sg24
I0
sbssg25
S']V9\xa6\xadN\xb7\x17\x9du(\xa5-\x93\xba\xc0'
p2174
ssS'_Users_caveman__virtualenvs_rssi_lib_python2_7_site-packages_mongoengine_fields'
p2175
(dp2176
g6
(dp2177
g118
S'_Users_caveman__virtualenvs_rssi_lib_python2_7_site-packages_mongoengine_fields.html'
p2178
sg120
S'/Users/caveman/.virtualenvs/rssi/lib/python2.7/site-packages/mongoengine/fields'
p2179
sg122
g13
(g14
g15
NtRp2180
(dp2181
g18
I1
sg19
I0
sg20
I849
sg21
I0
sg22
I0
sg23
I631
sg24
I0
sbssg25
S'\x17qa\x1b\xc2\xb0U\xe9\xb9\x8c\xfe$\xa3\x827\xc2'
p2182
ssS'_Users_caveman__virtualenvs_rssi_lib_python2_7_site-packages_django_core_management_commands_flush'
p2183
(dp2184
g6
(dp2185
g8
S'_Users_caveman__virtualenvs_rssi_lib_python2_7_site-packages_django_core_management_commands_flush.html'
p2186
sg10
S'/Users/caveman/.virtualenvs/rssi/lib/python2.7/site-packages/django/core/management/commands/flush'
p2187
sg12
g13
(g14
g15
NtRp2188
(dp2189
g18
I1
sg19
I0
sg20
I46
sg21
I0
sg22
I0
sg23
I5
sg24
I0
sbssg25
S'#^\x89\\H\xd4\x86\x86\xb6\x7f}\xe7\xee\x8akq'
p2190
ssS'_Users_caveman__virtualenvs_rssi_lib_python2_7_site-packages_mongoengine_base_fields'
p2191
(dp2192
g6
(dp2193
g118
S'_Users_caveman__virtualenvs_rssi_lib_python2_7_site-packages_mongoengine_base_fields.html'
p2194
sg120
S'/Users/caveman/.virtualenvs/rssi/lib/python2.7/site-packages/mongoengine/base/fields'
p2195
sg122
g13
(g14
g15
NtRp2196
(dp2197
g18
I1
sg19
I0
sg20
I308
sg21
I0
sg22
I0
sg23
I214
sg24
I0
sbssg25
S'\xb5*\x9e\xaf\xf8\xc1\xd6\x173~r\x0c\xb9\x0f\xd7e'
p2198
ssS'_Users_caveman__virtualenvs_rssi_lib_python2_7_site-packages_django_core_files_move'
p2199
(dp2200
g6
(dp2201
g8
S'_Users_caveman__virtualenvs_rssi_lib_python2_7_site-packages_django_core_files_move.html'
p2202
sg10
S'/Users/caveman/.virtualenvs/rssi/lib/python2.7/site-packages/django/core/files/move'
p2203
sg12
g13
(g14
g15
NtRp2204
(dp2205
g18
I1
sg19
I0
sg20
I45
sg21
I0
sg22
I0
sg23
I38
sg24
I0
sbssg25
S'K)w2\x06y\x1c0\xe1\x95\xae\x19(\xb1\xa1\xa3'
p2206
ssS'_Users_caveman__virtualenvs_rssi_lib_python2_7_site-packages_django_core_signing'
p2207
(dp2208
g6
(dp2209
g8
S'_Users_caveman__virtualenvs_rssi_lib_python2_7_site-packages_django_core_signing.html'
p2210
sg10
S'/Users/caveman/.virtualenvs/rssi/lib/python2.7/site-packages/django/core/signing'
p2211
sg12
g13
(g14
g15
NtRp2212
(dp2213
g18
I1
sg19
I0
sg20
I96
sg21
I0
sg22
I0
sg23
I63
sg24
I0
sbssg25
S'\xd3GN\x9a\x06OH\x9a\xf4[\x8e\xc2C\xfb\x14,'
p2214
ssS'_Users_caveman__virtualenvs_rssi_lib_python2_7_site-packages_django_core_management___init__'
p2215
(dp2216
g6
(dp2217
g8
S'_Users_caveman__virtualenvs_rssi_lib_python2_7_site-packages_django_core_management___init__.html'
p2218
sg10
S'/Users/caveman/.virtualenvs/rssi/lib/python2.7/site-packages/django/core/management/__init__'
p2219
sg12
g13
(g14
g15
NtRp2220
(dp2221
g18
I1
sg19
I0
sg20
I210
sg21
I0
sg22
I0
sg23
I100
sg24
I0
sbssg25
S'o\x83j\x99,9\xd6\x00\x88\xe3\x90\xbb\x0b\xb5\xe6@'
p2222
ssS'_Users_caveman__virtualenvs_rssi_lib_python2_7_site-packages_django_db_models_base'
p2223
(dp2224
g6
(dp2225
g8
S'_Users_caveman__virtualenvs_rssi_lib_python2_7_site-packages_django_db_models_base.html'
p2226
sg10
S'/Users/caveman/.virtualenvs/rssi/lib/python2.7/site-packages/django/db/models/base'
p2227
sg12
g13
(g14
g15
NtRp2228
(dp2229
g18
I1
sg19
I0
sg20
I544
sg21
I0
sg22
I0
sg23
I305
sg24
I0
sbssg25
S'\xe1\xd3[\x8e9\\\xb0\x07\xba\x0b>\xd7\xb58\xfcK'
p2230
ssS'_Users_caveman__virtualenvs_rssi_lib_python2_7_site-packages_bson_max_key'
p2231
(dp2232
g6
(dp2233
g8
S'_Users_caveman__virtualenvs_rssi_lib_python2_7_site-packages_bson_max_key.html'
p2234
sg10
S'/Users/caveman/.virtualenvs/rssi/lib/python2.7/site-packages/bson/max_key'
p2235
sg12
g13
(g14
g15
NtRp2236
(dp2237
g18
I1
sg19
I0
sg20
I10
sg21
I0
sg22
I0
sg23
I5
sg24
I0
sbssg25
S'\xcd\xf4\x11\x95|\xbc&\xfbP!\xabea\x19\xaci'
p2238
ssS'_Users_caveman__virtualenvs_rssi_lib_python2_7_site-packages_django_template_loaders___init__'
p2239
(dp2240
g6
(dp2241
g8
S'_Users_caveman__virtualenvs_rssi_lib_python2_7_site-packages_django_template_loaders___init__.html'
p2242
sg10
S'/Users/caveman/.virtualenvs/rssi/lib/python2.7/site-packages/django/template/loaders/__init__'
p2243
sg12
g13
(g14
g15
NtRp2244
(dp2245
g18
I1
sg19
I0
sg20
I0
sg21
I0
sg22
I0
sg23
I0
sg24
I0
sbssg25
S'\xb0\xc8pN\xaf>\xa0\xbaz\x144\xe0A9\xb8?'
p2246
sssS'version'
p2247
S'3.7'
p2248
sS'settings'
p2249
S'\xa3rd\x80\x8f\xb5t?p5\x04R\x18\x85\xda\x82'
p2250
sS'format'
p2251
I1
s.